Certificate:
    Data:
        Version: 3 (0x2)
        Serial Number: 1 (0x1)
    Signature Algorithm: sha1WithRSAEncryption
        Issuer: CN=rootCA, OU=Basho Engineering, O=Basho, L=Cambridge, MA, C=US/emailAddress=riak@basho.com
        Validity
            Not Before: Oct 20 21:50:34 2014 GMT
            Not After : Aug 28 21:50:34 2024 GMT
        Subject: CN=childCA, OU=Basho Engineering, O=Basho, C=US, L=Cambridge, MA/emailAddress=riak@basho.com
        Subject Public Key Info:
            Public Key Algorithm: rsaEncryption
                Public-Key: (2048 bit)
                Modulus:
                    00:a7:51:89:2a:85:ee:da:18:37:a6:46:a0:74:af:
                    36:6b:d4:f2:29:e0:8a:60:12:44:8e:00:99:64:8a:
                    0b:f9:de:cc:87:a3:a4:a9:32:e2:ac:16:ba:f2:81:
                    ca:f8:e1:56:41:44:f1:62:94:70:1c:05:54:72:bb:
                    16:44:c9:45:1f:39:1a:25:f7:73:6d:3a:e6:cb:82:
                    2d:08:ee:ec:48:36:a7:40:ba:95:2c:c0:76:e0:88:
                    38:32:52:99:21:f4:2c:32:5c:f9:65:c7:ed:9e:b0:
                    ff:a8:61:6a:da:81:50:93:4b:f4:d2:b0:bd:10:e7:
                    19:f6:c8:91:f0:7c:b9:48:2b:c5:92:9d:62:3d:a5:
                    7d:e5:e0:32:1c:16:a3:66:52:be:07:7c:45:44:8f:
                    8d:93:1d:87:2b:e1:78:b3:81:53:34:13:03:19:b7:
                    47:6a:ef:b6:11:e8:fa:2e:a2:3d:cc:59:d6:10:f6:
                    78:d7:a2:5c:17:ed:d9:3d:92:97:86:61:7a:d4:0b:
                    0d:e3:49:67:d2:87:d5:53:d5:03:de:f4:4f:8c:2e:
                    a1:f3:81:07:c2:81:da:64:19:35:75:e6:c6:17:b9:
                    67:ff:1b:c5:bf:ea:16:7b:d9:f8:04:7d:1b:77:08:
                    fc:31:e1:eb:17:20:05:79:9f:6e:67:a1:31:35:6c:
                    3c:67
                Exponent: 65537 (0x10001)
        X509v3 extensions:
            X509v3 Basic Constraints: critical
                CA:TRUE
            X509v3 Key Usage: 
                Certificate Sign, CRL Sign
            X509v3 Subject Key Identifier: 
                26:C2:7A:67:E3:7D:CA:4C:4D:AE:A9:C3:3C:5F:EC:D9:01:F6:E5:2B
            X509v3 Authority Key Identifier: 
                keyid:0B:FA:5C:C3:A7:53:35:6B:B8:CE:70:39:5A:43:32:C4:80:80:73:48
                DirName:/CN=rootCA/OU=Basho Engineering/O=Basho/L=Cambridge, MA/C=US/emailAddress=riak@basho.com
                serial:DF:2B:E1:06:46:5B:41:94

            X509v3 Subject Alternative Name: 
                email:riak@basho.com
            X509v3 Issuer Alternative Name: 
                email:riak@basho.com
            X509v3 CRL Distribution Points: 

                Full Name:
                  URI:file:///tmp/tmp.wQ15KHu3lo/rootCA/crl.pem

                Full Name:
                  URI:http://localhost:8000/rootCA/crl.pem

    Signature Algorithm: sha1WithRSAEncryption
         2b:95:23:c2:70:41:77:57:76:6b:86:dc:e0:9a:2c:88:fc:f4:
         a1:c7:cf:88:bd:e4:bc:3d:e8:8d:91:40:79:57:1b:29:8a:07:
         f2:90:50:17:13:3c:10:39:f2:b2:98:67:4a:6c:7c:ec:77:f5:
         2c:03:cf:70:b1:ce:48:fa:8b:b1:d0:54:7e:36:1e:b1:98:ef:
         e0:fc:1c:1a:85:97:ad:a7:ab:c7:54:6f:21:1f:17:2e:ff:e4:
         c6:88:44:5f:8a:91:9b:bb:da:fd:9f:a2:25:36:de:7e:a1:a4:
         05:04:d1:f1:40:3f:5a:fe:ba:f2:e4:d0:bf:d7:19:95:9a:ab:
         b0:5d:ed:58:14:e7:0e:45:1f:e7:73:8b:99:ee:32:1b:8a:e0:
         2c:32:54:f8:93:2e:ae:b5:7d:d6:45:b0:48:4f:06:c9:81:23:
         4a:18:a9:86:35:d0:a9:4a:54:24:10:3b:2b:ef:73:1e:88:4b:
         80:31:1e:5a:0c:b1:56:38:eb:28:c0:3e:57:1e:2d:45:48:4a:
         c2:87:84:70:c0:7b:68:f5:3f:33:a3:2a:63:a3:5a:ac:0b:2f:
         75:2d:35:09:e1:a7:a2:a9:13:9b:fc:b2:11:cd:19:4e:bc:8e:
         11:0d:d8:ab:e0:03:9a:c1:e3:ea:55:ad:91:44:de:b4:5b:35:
         ed:7c:a8:af
-----BEGIN CERTIFICATE-----
MIIFGjCCBAKgAwIBAgIBATANBgkqhkiG9w0BAQUFADCBgTEPMA0GA1UEAxMGcm9v
dENBMRowGAYDVQQLExFCYXNobyBFbmdpbmVlcmluZzEOMAwGA1UEChMFQmFzaG8x
FjAUBgNVBAcTDUNhbWJyaWRnZSwgTUExCzAJBgNVBAYTAlVTMR0wGwYJKoZIhvcN
AQkBFg5yaWFrQGJhc2hvLmNvbTAeFw0xNDEwMjAyMTUwMzRaFw0yNDA4MjgyMTUw
MzRaMIGCMRAwDgYDVQQDEwdjaGlsZENBMRowGAYDVQQLExFCYXNobyBFbmdpbmVl
cmluZzEOMAwGA1UEChMFQmFzaG8xCzAJBgNVBAYTAlVTMRYwFAYDVQQHEw1DYW1i
cmlkZ2UsIE1BMR0wGwYJKoZIhvcNAQkBFg5yaWFrQGJhc2hvLmNvbTCCASIwDQYJ
KoZIhvcNAQEBBQADggEPADCCAQoCggEBAKdRiSqF7toYN6ZGoHSvNmvU8ingimAS
RI4AmWSKC/nezIejpKky4qwWuvKByvjhVkFE8WKUcBwFVHK7FkTJRR85GiX3c206
5suCLQju7Eg2p0C6lSzAduCIODJSmSH0LDJc+WXH7Z6w/6hhatqBUJNL9NKwvRDn
GfbIkfB8uUgrxZKdYj2lfeXgMhwWo2ZSvgd8RUSPjZMdhyvheLOBUzQTAxm3R2rv
thHo+i6iPcxZ1hD2eNeiXBft2T2Sl4ZhetQLDeNJZ9KH1VPVA970T4wuofOBB8KB
2mQZNXXmxhe5Z/8bxb/qFnvZ+AR9G3cI/DHh6xcgBXmfbmehMTVsPGcCAwEAAaOC
AZgwggGUMA8GA1UdEwEB/wQFMAMBAf8wCwYDVR0PBAQDAgEGMB0GA1UdDgQWBBQm
wnpn433KTE2uqcM8X+zZAfblKzCBtgYDVR0jBIGuMIGrgBQL+lzDp1M1a7jOcDla
QzLEgIBzSKGBh6SBhDCBgTEPMA0GA1UEAxMGcm9vdENBMRowGAYDVQQLExFCYXNo
byBFbmdpbmVlcmluZzEOMAwGA1UEChMFQmFzaG8xFjAUBgNVBAcTDUNhbWJyaWRn
ZSwgTUExCzAJBgNVBAYTAlVTMR0wGwYJKoZIhvcNAQkBFg5yaWFrQGJhc2hvLmNv
bYIJAN8r4QZGW0GUMBkGA1UdEQQSMBCBDnJpYWtAYmFzaG8uY29tMBkGA1UdEgQS
MBCBDnJpYWtAYmFzaG8uY29tMGYGA1UdHwRfMF0wL6AtoCuGKWZpbGU6Ly8vdG1w
L3RtcC53UTE1S0h1M2xvL3Jvb3RDQS9jcmwucGVtMCqgKKAmhiRodHRwOi8vbG9j
YWxob3N0OjgwMDAvcm9vdENBL2NybC5wZW0wDQYJKoZIhvcNAQEFBQADggEBACuV
I8JwQXdXdmuG3OCaLIj89KHHz4i95Lw96I2RQHlXGymKB/KQUBcTPBA58rKYZ0ps
fOx39SwDz3Cxzkj6i7HQVH42HrGY7+D8HBqFl62nq8dUbyEfFy7/5MaIRF+KkZu7
2v2foiU23n6hpAUE0fFAP1r+uvLk0L/XGZWaq7Bd7VgU5w5FH+dzi5nuMhuK4Cwy
VPiTLq61fdZFsEhPBsmBI0oYqYY10KlKVCQQOyvvcx6IS4AxHloMsVY46yjAPlce
LUVISsKHhHDAe2j1PzOjKmOjWqwLL3UtNQnhp6KpE5v8shHNGU68jhEN2KvgA5rB
4+pVrZFE3rRbNe18qK8=
-----END CERTIFICATE-----
