Certificate:
    Data:
        Version: 3 (0x2)
        Serial Number: 11257140779044973933 (0x9c3965e5498a2d6d)
    Signature Algorithm: sha1WithRSAEncryption
        Issuer: C=US, ST=New York, O=Basho, CN=Basho root CA
        Validity
            Not Before: Apr 29 17:01:45 2013 GMT
            Not After : Apr 29 17:01:45 2014 GMT
        Subject: C=US, ST=New York, L=Potsdam, O=Basho, CN=Basho child CA
        Subject Public Key Info:
            Public Key Algorithm: rsaEncryption
                Public-Key: (1024 bit)
                Modulus:
                    00:b7:3e:06:8e:c0:0c:98:8e:1f:61:96:6b:a3:f3:
                    c9:da:f4:c5:18:c8:76:3b:c1:18:ec:72:79:49:a5:
                    ae:4f:c2:c0:89:de:6b:6f:74:9e:22:df:2a:83:f8:
                    5b:67:d9:0d:04:cb:4e:6a:b0:0a:4f:c8:62:17:c4:
                    0c:8a:cb:a3:cf:b6:88:c9:3b:98:8a:95:77:b0:44:
                    d8:f2:90:2b:08:fb:b2:71:18:62:2a:da:15:a6:52:
                    42:51:0f:4c:7d:e6:f6:82:a6:7a:fa:06:68:83:dc:
                    4c:47:f3:c2:1f:d5:4a:6f:4d:4d:01:9a:45:f5:7c:
                    82:79:63:74:9e:05:a5:52:d1
                Exponent: 65537 (0x10001)
        X509v3 extensions:
            X509v3 Subject Key Identifier: 
                25:7A:8F:54:F3:F3:C6:57:09:6E:BF:98:4B:02:A2:9E:D5:6A:F3:89
            X509v3 Authority Key Identifier: 
                keyid:D3:35:1A:59:0A:6B:4B:8F:2E:4A:86:27:07:9E:40:AB:23:61:A8:88

            X509v3 Basic Constraints: 
                CA:TRUE
    Signature Algorithm: sha1WithRSAEncryption
         81:c2:32:15:f4:4b:5a:c8:c5:77:da:2c:44:1e:84:5c:4f:6a:
         46:9d:22:7c:61:fb:d2:50:24:29:df:b1:dc:77:bd:17:0c:c0:
         4e:03:6e:c5:3e:e3:4c:f7:9b:44:d5:cc:10:32:c2:cd:1f:a6:
         a7:3e:23:98:55:4f:69:0a:2a:63:e7:48:b4:ff:27:b9:f9:b7:
         eb:68:55:5e:ad:af:b5:fa:cf:58:c6:47:49:e4:29:53:a9:25:
         b6:e9:3a:1c:3d:c9:dc:9e:39:8f:62:2a:f2:2c:49:39:ed:d2:
         78:fc:e8:74:26:76:6a:2f:40:38:c7:a6:52:48:72:85:c0:59:
         f6:65
-----BEGIN CERTIFICATE-----
MIICcTCCAdqgAwIBAgIJAJw5ZeVJii1tMA0GCSqGSIb3DQEBBQUAMEgxCzAJBgNV
BAYTAlVTMREwDwYDVQQIDAhOZXcgWW9yazEOMAwGA1UECgwFQmFzaG8xFjAUBgNV
BAMMDUJhc2hvIHJvb3QgQ0EwHhcNMTMwNDI5MTcwMTQ1WhcNMTQwNDI5MTcwMTQ1
WjBbMQswCQYDVQQGEwJVUzERMA8GA1UECAwITmV3IFlvcmsxEDAOBgNVBAcMB1Bv
dHNkYW0xDjAMBgNVBAoMBUJhc2hvMRcwFQYDVQQDDA5CYXNobyBjaGlsZCBDQTCB
nzANBgkqhkiG9w0BAQEFAAOBjQAwgYkCgYEAtz4GjsAMmI4fYZZro/PJ2vTFGMh2
O8EY7HJ5SaWuT8LAid5rb3SeIt8qg/hbZ9kNBMtOarAKT8hiF8QMisujz7aIyTuY
ipV3sETY8pArCPuycRhiKtoVplJCUQ9Mfeb2gqZ6+gZog9xMR/PCH9VKb01NAZpF
9XyCeWN0ngWlUtECAwEAAaNQME4wHQYDVR0OBBYEFCV6j1Tz88ZXCW6/mEsCop7V
avOJMB8GA1UdIwQYMBaAFNM1GlkKa0uPLkqGJweeQKsjYaiIMAwGA1UdEwQFMAMB
Af8wDQYJKoZIhvcNAQEFBQADgYEAgcIyFfRLWsjFd9osRB6EXE9qRp0ifGH70lAk
Kd+x3He9FwzATgNuxT7jTPebRNXMEDLCzR+mpz4jmFVPaQoqY+dItP8nufm362hV
Xq2vtfrPWMZHSeQpU6kltuk6HD3J3J45j2Iq8ixJOe3SePzodCZ2ai9AOMemUkhy
hcBZ9mU=
-----END CERTIFICATE-----
