Certificate:
    Data:
        Version: 3 (0x2)
        Serial Number: 1 (0x1)
        Signature Algorithm: sha1WithRSAEncryption
        Issuer: CN=RootCA, OU=Basho Engineering, O=Basho, L=Cambridge, MA, C=US/emailAddress=riak@basho.com
        Validity
            Not Before: Nov 22 19:55:01 2014 GMT
            Not After : Nov 21 19:55:01 2024 GMT
        Subject: CN=IntCA, OU=Basho Engineering, O=Basho, C=US, L=Cambridge, MA/emailAddress=riak@basho.com
        Subject Public Key Info:
            Public Key Algorithm: rsaEncryption
            RSA Public Key: (2048 bit)
                Modulus (2048 bit):
                    00:b9:39:83:3d:6f:d7:9c:63:eb:be:ae:03:9d:e0:
                    28:b8:bf:15:18:32:cb:c2:4e:77:13:e5:3a:76:d2:
                    c8:cd:02:56:55:e0:6d:b8:7d:57:fb:5f:e4:06:a7:
                    20:45:08:c8:9b:b6:48:91:31:a3:73:1b:50:bb:81:
                    c8:10:59:b1:e5:17:4c:a7:ba:2e:8e:bb:60:c0:c5:
                    54:23:9b:93:ac:59:12:7e:a3:c5:7c:60:d4:8d:8b:
                    e9:9c:9a:40:96:e4:a1:7e:59:ec:8a:61:d5:f5:67:
                    fc:a6:fe:f1:8b:aa:f4:a2:86:4c:70:9b:80:0a:21:
                    0d:60:db:9e:b6:da:55:a3:08:12:ec:1f:30:04:b9:
                    12:61:c3:08:0c:de:f0:14:63:87:cf:d6:04:f2:22:
                    c2:a5:58:d5:42:5b:60:af:9d:62:ed:f8:bd:91:3b:
                    c2:8f:80:24:ff:79:69:21:23:46:7d:c8:91:54:2a:
                    24:a7:e8:38:fb:9c:df:a3:00:c7:c9:46:2c:5d:a4:
                    1b:0c:a7:8c:99:d2:3c:25:87:c3:cd:51:c6:d2:c6:
                    07:30:8f:cd:8d:2a:82:62:e3:45:38:b2:85:10:6f:
                    ab:72:b6:97:19:3c:62:f8:c2:db:fe:25:68:6b:5e:
                    4f:35:78:0d:f6:0b:4e:1c:bf:4a:7a:56:49:39:8c:
                    2e:6f
                Exponent: 65537 (0x10001)
        X509v3 extensions:
            X509v3 Basic Constraints: critical
                CA:TRUE
            X509v3 Key Usage: 
                Certificate Sign, CRL Sign
            X509v3 Subject Key Identifier: 
                AC:E8:50:19:36:24:15:DF:2D:3C:01:8B:F1:8A:64:E7:7D:36:B1:40
            X509v3 Authority Key Identifier: 
                keyid:C9:9C:C2:8B:3B:95:13:ED:A6:68:1B:99:E1:7E:9E:BD:A7:2C:0E:7B
                DirName:/CN=RootCA/OU=Basho Engineering/O=Basho/L=Cambridge, MA/C=US/emailAddress=riak@basho.com
                serial:CF:AB:F8:2B:5F:A4:9F:A7

            X509v3 Subject Alternative Name: 
                email:riak@basho.com
            X509v3 Issuer Alternative Name: 
                email:riak@basho.com
            X509v3 CRL Distribution Points: 
                URI:file:///tmp/riak_test_scratch/certs/RootCA/crl.pem

    Signature Algorithm: sha1WithRSAEncryption
        30:f8:5c:bb:6c:2e:30:22:ae:38:c3:26:08:7e:b6:39:d9:61:
        c8:0b:aa:5a:8d:8b:51:84:3f:60:4f:c9:d0:84:07:7d:b3:a0:
        ad:2f:c7:f8:d7:1f:d5:6d:2e:f1:37:64:a9:74:be:1b:58:d7:
        87:db:ce:9d:d0:b8:c6:aa:9f:8a:8e:67:f3:d6:a9:74:9b:f4:
        03:8c:fc:e9:a5:b4:59:8b:ec:69:1e:36:c1:84:2a:ad:1c:92:
        e1:22:f2:06:04:e5:3b:a7:d6:01:dd:65:7c:5d:27:76:41:19:
        23:e3:26:d5:fb:65:af:75:59:dc:36:93:18:b3:c4:b3:b4:37:
        1b:68:8a:bf:a5:dc:3e:2b:7e:c6:a0:5a:23:9b:89:07:a4:30:
        a8:c6:e4:31:5f:0e:e0:b7:44:99:f0:e4:b7:8a:98:fe:4a:e1:
        d7:fc:3a:74:ea:be:21:fa:a4:f2:0e:8f:db:d9:92:fb:ad:90:
        5c:8a:fb:b5:02:19:d1:54:c0:51:a9:12:dd:85:a5:f6:32:33:
        ae:1a:5b:a8:10:c4:ef:a6:4f:07:7e:2e:86:ad:36:a6:cd:bc:
        7a:88:7d:91:c4:5f:9c:fa:ea:44:af:6a:ff:62:78:26:ec:5c:
        44:ea:6f:fe:b7:ac:b5:c2:44:69:7a:48:07:49:6e:c5:1a:24:
        8b:24:a9:79
-----BEGIN CERTIFICATE-----
MIIE9TCCA92gAwIBAgIBATANBgkqhkiG9w0BAQUFADCBgTEPMA0GA1UEAwwGUm9v
dENBMRowGAYDVQQLDBFCYXNobyBFbmdpbmVlcmluZzEOMAwGA1UECgwFQmFzaG8x
FjAUBgNVBAcMDUNhbWJyaWRnZSwgTUExCzAJBgNVBAYTAlVTMR0wGwYJKoZIhvcN
AQkBFg5yaWFrQGJhc2hvLmNvbTAeFw0xNDExMjIxOTU1MDFaFw0yNDExMjExOTU1
MDFaMIGAMQ4wDAYDVQQDDAVJbnRDQTEaMBgGA1UECwwRQmFzaG8gRW5naW5lZXJp
bmcxDjAMBgNVBAoMBUJhc2hvMQswCQYDVQQGEwJVUzEWMBQGA1UEBwwNQ2FtYnJp
ZGdlLCBNQTEdMBsGCSqGSIb3DQEJARYOcmlha0BiYXNoby5jb20wggEiMA0GCSqG
SIb3DQEBAQUAA4IBDwAwggEKAoIBAQC5OYM9b9ecY+u+rgOd4Ci4vxUYMsvCTncT
5Tp20sjNAlZV4G24fVf7X+QGpyBFCMibtkiRMaNzG1C7gcgQWbHlF0ynui6Ou2DA
xVQjm5OsWRJ+o8V8YNSNi+mcmkCW5KF+WeyKYdX1Z/ym/vGLqvSihkxwm4AKIQ1g
25622lWjCBLsHzAEuRJhwwgM3vAUY4fP1gTyIsKlWNVCW2CvnWLt+L2RO8KPgCT/
eWkhI0Z9yJFUKiSn6Dj7nN+jAMfJRixdpBsMp4yZ0jwlh8PNUcbSxgcwj82NKoJi
40U4soUQb6tytpcZPGL4wtv+JWhrXk81eA32C04cv0p6Vkk5jC5vAgMBAAGjggF1
MIIBcTAPBgNVHRMBAf8EBTADAQH/MAsGA1UdDwQEAwIBBjAdBgNVHQ4EFgQUrOhQ
GTYkFd8tPAGL8Ypk5302sUAwgbYGA1UdIwSBrjCBq4AUyZzCizuVE+2maBuZ4X6e
vacsDnuhgYekgYQwgYExDzANBgNVBAMMBlJvb3RDQTEaMBgGA1UECwwRQmFzaG8g
RW5naW5lZXJpbmcxDjAMBgNVBAoMBUJhc2hvMRYwFAYDVQQHDA1DYW1icmlkZ2Us
IE1BMQswCQYDVQQGEwJVUzEdMBsGCSqGSIb3DQEJARYOcmlha0BiYXNoby5jb22C
CQDPq/grX6SfpzAZBgNVHREEEjAQgQ5yaWFrQGJhc2hvLmNvbTAZBgNVHRIEEjAQ
gQ5yaWFrQGJhc2hvLmNvbTBDBgNVHR8EPDA6MDigNqA0hjJmaWxlOi8vL3RtcC9y
aWFrX3Rlc3Rfc2NyYXRjaC9jZXJ0cy9Sb290Q0EvY3JsLnBlbTANBgkqhkiG9w0B
AQUFAAOCAQEAMPhcu2wuMCKuOMMmCH62OdlhyAuqWo2LUYQ/YE/J0IQHfbOgrS/H
+Ncf1W0u8TdkqXS+G1jXh9vOndC4xqqfio5n89apdJv0A4z86aW0WYvsaR42wYQq
rRyS4SLyBgTlO6fWAd1lfF0ndkEZI+Mm1ftlr3VZ3DaTGLPEs7Q3G2iKv6XcPit+
xqBaI5uJB6QwqMbkMV8O4LdEmfDkt4qY/krh1/w6dOq+Ifqk8g6P29mS+62QXIr7
tQIZ0VTAUakS3YWl9jIzrhpbqBDE76ZPB34uhq02ps28eoh9kcRfnPrqRK9q/2J4
JuxcROpv/restcJEaXpIB0luxRokiySpeQ==
-----END CERTIFICATE-----
