Certificate:
    Data:
        Version: 3 (0x2)
        Serial Number: 11257140779044973932 (0x9c3965e5498a2d6c)
    Signature Algorithm: sha1WithRSAEncryption
        Issuer: C=US, ST=New York, O=Basho, CN=Basho root CA
        Validity
            Not Before: Apr 29 17:00:42 2013 GMT
            Not After : Apr 27 17:00:42 2023 GMT
        Subject: C=US, ST=New York, O=Basho, CN=Basho root CA
        Subject Public Key Info:
            Public Key Algorithm: rsaEncryption
                Public-Key: (1024 bit)
                Modulus:
                    00:c9:18:a7:9a:f1:4c:77:bf:0e:7d:7e:80:6e:2e:
                    07:3d:d4:cc:e9:9d:83:d1:52:7f:d5:11:6a:a6:3f:
                    d4:ea:9e:6c:11:32:39:9c:f4:63:81:72:28:98:48:
                    7f:0b:dc:9b:57:d5:a2:68:b7:16:d7:4c:20:fe:f5:
                    08:d7:f0:49:c8:3b:e4:73:93:c0:75:97:a5:0f:d0:
                    ab:8d:c3:2a:76:e7:33:19:a9:45:19:b0:6f:7c:a9:
                    9c:62:d7:94:8b:7f:d6:22:be:d9:93:10:64:cc:0e:
                    8b:52:2a:d1:58:85:5c:85:0c:00:82:ff:39:c5:e6:
                    e9:b2:8e:33:c9:63:2b:30:7d
                Exponent: 65537 (0x10001)
        X509v3 extensions:
            X509v3 Subject Key Identifier: 
                D3:35:1A:59:0A:6B:4B:8F:2E:4A:86:27:07:9E:40:AB:23:61:A8:88
            X509v3 Authority Key Identifier: 
                keyid:D3:35:1A:59:0A:6B:4B:8F:2E:4A:86:27:07:9E:40:AB:23:61:A8:88

            X509v3 Basic Constraints: 
                CA:TRUE
    Signature Algorithm: sha1WithRSAEncryption
         a0:3e:69:49:17:f9:0b:b0:c1:2d:a0:2c:c8:b4:b5:aa:93:e9:
         9f:d5:c1:6c:55:0c:21:77:fc:55:fe:d9:ac:31:8b:b9:d2:73:
         ae:c2:4b:1b:45:b4:56:2d:3e:f3:18:cf:3b:80:c7:4e:c6:5c:
         f7:11:a2:7b:ef:ea:3d:16:c9:3f:2b:3f:c8:64:7a:00:af:6f:
         af:40:20:bd:da:64:a3:92:b4:2e:67:6e:af:f6:b8:77:d8:0b:
         58:97:f5:25:07:75:e5:6a:aa:0a:59:1f:91:4e:54:7c:88:05:
         28:29:06:27:d2:7a:ee:b0:0e:26:66:d4:57:e4:54:ae:ca:42:
         3e:32
-----BEGIN CERTIFICATE-----
MIICXjCCAcegAwIBAgIJAJw5ZeVJii1sMA0GCSqGSIb3DQEBBQUAMEgxCzAJBgNV
BAYTAlVTMREwDwYDVQQIDAhOZXcgWW9yazEOMAwGA1UECgwFQmFzaG8xFjAUBgNV
BAMMDUJhc2hvIHJvb3QgQ0EwHhcNMTMwNDI5MTcwMDQyWhcNMjMwNDI3MTcwMDQy
WjBIMQswCQYDVQQGEwJVUzERMA8GA1UECAwITmV3IFlvcmsxDjAMBgNVBAoMBUJh
c2hvMRYwFAYDVQQDDA1CYXNobyByb290IENBMIGfMA0GCSqGSIb3DQEBAQUAA4GN
ADCBiQKBgQDJGKea8Ux3vw59foBuLgc91MzpnYPRUn/VEWqmP9TqnmwRMjmc9GOB
ciiYSH8L3JtX1aJotxbXTCD+9QjX8EnIO+Rzk8B1l6UP0KuNwyp25zMZqUUZsG98
qZxi15SLf9YivtmTEGTMDotSKtFYhVyFDACC/znF5umyjjPJYyswfQIDAQABo1Aw
TjAdBgNVHQ4EFgQU0zUaWQprS48uSoYnB55AqyNhqIgwHwYDVR0jBBgwFoAU0zUa
WQprS48uSoYnB55AqyNhqIgwDAYDVR0TBAUwAwEB/zANBgkqhkiG9w0BAQUFAAOB
gQCgPmlJF/kLsMEtoCzItLWqk+mf1cFsVQwhd/xV/tmsMYu50nOuwksbRbRWLT7z
GM87gMdOxlz3EaJ77+o9Fsk/Kz/IZHoAr2+vQCC92mSjkrQuZ26v9rh32AtYl/Ul
B3XlaqoKWR+RTlR8iAUoKQYn0nrusA4mZtRX5FSuykI+Mg==
-----END CERTIFICATE-----
