Certificate:
    Data:
        Version: 3 (0x2)
        Serial Number: 8 (0x8)
        Signature Algorithm: sha1WithRSAEncryption
        Issuer: CN=RootCA, OU=Basho Engineering, O=Basho, L=Cambridge, MA, C=US/emailAddress=riak@basho.com
        Validity
            Not Before: Nov 22 19:55:02 2014 GMT
            Not After : Nov 21 19:55:02 2024 GMT
        Subject: CN=site6.basho.com
        Subject Public Key Info:
            Public Key Algorithm: rsaEncryption
            RSA Public Key: (2048 bit)
                Modulus (2048 bit):
                    00:b5:aa:5f:93:f4:30:ab:08:4e:ec:0e:26:8e:7a:
                    b2:f7:e1:6a:56:8b:6e:48:14:88:01:ef:01:b6:22:
                    46:a3:f8:7b:23:9a:e9:45:7c:dc:aa:cb:af:4f:7d:
                    1c:a3:50:e8:37:3b:02:a1:7e:d7:3b:b4:bf:f6:02:
                    97:f0:6f:ca:63:aa:fe:eb:f4:0d:fc:16:d2:85:5b:
                    a3:0e:47:10:44:6f:82:6b:f2:22:77:c3:21:fd:dc:
                    c1:df:b7:44:aa:01:75:89:c6:37:8b:9d:dc:1b:35:
                    17:e4:9b:7e:06:7a:20:e8:0e:d4:0e:52:71:d3:b9:
                    fe:64:d3:49:98:d6:35:45:cd:44:51:b2:b7:4c:1f:
                    ad:a5:96:4a:4a:b5:78:6c:1f:ed:cb:c5:9c:89:3a:
                    8b:58:89:28:23:df:db:56:b4:63:0d:41:5a:b9:3e:
                    a0:27:55:c6:97:df:b1:de:33:4d:a7:37:1d:b4:db:
                    35:d3:c3:c5:47:09:c1:c5:40:16:a8:f0:11:40:25:
                    15:1b:a6:93:ba:b2:57:93:3b:99:e5:08:4f:e9:8a:
                    00:08:39:82:ea:d5:70:96:9f:4b:35:4d:65:bc:9c:
                    2f:7e:02:98:58:fc:63:71:40:c1:a5:ed:bf:b5:06:
                    47:a4:ba:0b:84:17:df:14:8d:7f:c3:7c:ab:62:38:
                    b8:83
                Exponent: 65537 (0x10001)
        X509v3 extensions:
            X509v3 Basic Constraints: 
                CA:FALSE
            X509v3 Key Usage: 
                Digital Signature, Non Repudiation, Key Encipherment
            X509v3 Subject Key Identifier: 
                5D:31:A6:ED:31:4E:48:2E:32:A1:A8:2E:87:D6:F7:55:54:5B:62:8F
            X509v3 Authority Key Identifier: 
                keyid:C9:9C:C2:8B:3B:95:13:ED:A6:68:1B:99:E1:7E:9E:BD:A7:2C:0E:7B
                DirName:/CN=RootCA/OU=Basho Engineering/O=Basho/L=Cambridge, MA/C=US/emailAddress=riak@basho.com
                serial:CF:AB:F8:2B:5F:A4:9F:A7

            X509v3 Subject Alternative Name: 
                <EMPTY>

            X509v3 Issuer Alternative Name: 
                email:riak@basho.com
            X509v3 CRL Distribution Points: 
                URI:file:///tmp/riak_test_scratch/certs/RootCA/crl.pem

    Signature Algorithm: sha1WithRSAEncryption
        aa:8d:49:72:7b:5f:8f:77:6f:c4:18:4b:bb:70:0c:85:c2:63:
        aa:d2:58:31:af:f4:91:b5:56:60:01:63:cc:42:7a:b4:8a:26:
        f4:39:71:67:04:cf:3e:64:4f:09:9b:90:85:f6:9f:b5:8d:28:
        21:0f:cf:c5:d6:e5:fe:f8:f7:63:cb:80:01:6a:92:5b:3f:6e:
        1d:34:47:d7:96:f4:ac:5a:bf:1e:5d:eb:ee:44:22:f7:a0:88:
        14:aa:97:43:9d:3f:ff:23:f2:e5:51:0d:4a:6b:bc:99:07:37:
        4a:bb:37:82:58:9b:4b:2d:12:ad:28:8a:bd:18:c1:f9:d9:ed:
        b6:d7:ea:d0:bb:f7:a2:a3:3d:17:e6:09:5e:81:68:46:cc:da:
        fa:29:39:33:ce:ae:5d:b8:8d:3d:69:92:15:4a:22:17:47:63:
        71:d7:83:60:27:5d:eb:b0:58:d5:d2:99:96:3a:d2:f7:1d:bc:
        d4:38:59:66:50:5a:c3:71:2b:14:bb:ff:68:06:e8:a3:e9:4b:
        b7:16:eb:4f:4e:07:1c:26:60:33:2f:65:18:2e:14:59:8a:cb:
        42:32:d5:73:ad:8a:3b:57:f2:8a:90:90:bf:4d:9b:c0:64:5b:
        f4:91:96:f5:19:f2:cd:24:95:4b:c2:73:14:31:44:64:07:14:
        48:c2:34:bd
-----BEGIN CERTIFICATE-----
MIIEeDCCA2CgAwIBAgIBCDANBgkqhkiG9w0BAQUFADCBgTEPMA0GA1UEAwwGUm9v
dENBMRowGAYDVQQLDBFCYXNobyBFbmdpbmVlcmluZzEOMAwGA1UECgwFQmFzaG8x
FjAUBgNVBAcMDUNhbWJyaWRnZSwgTUExCzAJBgNVBAYTAlVTMR0wGwYJKoZIhvcN
AQkBFg5yaWFrQGJhc2hvLmNvbTAeFw0xNDExMjIxOTU1MDJaFw0yNDExMjExOTU1
MDJaMBoxGDAWBgNVBAMMD3NpdGU2LmJhc2hvLmNvbTCCASIwDQYJKoZIhvcNAQEB
BQADggEPADCCAQoCggEBALWqX5P0MKsITuwOJo56svfhalaLbkgUiAHvAbYiRqP4
eyOa6UV83KrLr099HKNQ6Dc7AqF+1zu0v/YCl/BvymOq/uv0DfwW0oVbow5HEERv
gmvyInfDIf3cwd+3RKoBdYnGN4ud3Bs1F+SbfgZ6IOgO1A5ScdO5/mTTSZjWNUXN
RFGyt0wfraWWSkq1eGwf7cvFnIk6i1iJKCPf21a0Yw1BWrk+oCdVxpffsd4zTac3
HbTbNdPDxUcJwcVAFqjwEUAlFRumk7qyV5M7meUIT+mKAAg5gurVcJafSzVNZbyc
L34CmFj8Y3FAwaXtv7UGR6S6C4QX3xSNf8N8q2I4uIMCAwEAAaOCAV8wggFbMAkG
A1UdEwQCMAAwCwYDVR0PBAQDAgXgMB0GA1UdDgQWBBRdMabtMU5ILjKhqC6H1vdV
VFtijzCBtgYDVR0jBIGuMIGrgBTJnMKLO5UT7aZoG5nhfp69pywOe6GBh6SBhDCB
gTEPMA0GA1UEAwwGUm9vdENBMRowGAYDVQQLDBFCYXNobyBFbmdpbmVlcmluZzEO
MAwGA1UECgwFQmFzaG8xFjAUBgNVBAcMDUNhbWJyaWRnZSwgTUExCzAJBgNVBAYT
AlVTMR0wGwYJKoZIhvcNAQkBFg5yaWFrQGJhc2hvLmNvbYIJAM+r+CtfpJ+nMAkG
A1UdEQQCMAAwGQYDVR0SBBIwEIEOcmlha0BiYXNoby5jb20wQwYDVR0fBDwwOjA4
oDagNIYyZmlsZTovLy90bXAvcmlha190ZXN0X3NjcmF0Y2gvY2VydHMvUm9vdENB
L2NybC5wZW0wDQYJKoZIhvcNAQEFBQADggEBAKqNSXJ7X493b8QYS7twDIXCY6rS
WDGv9JG1VmABY8xCerSKJvQ5cWcEzz5kTwmbkIX2n7WNKCEPz8XW5f7492PLgAFq
kls/bh00R9eW9Kxavx5d6+5EIvegiBSql0OdP/8j8uVRDUprvJkHN0q7N4JYm0st
Eq0oir0YwfnZ7bbX6tC796KjPRfmCV6BaEbM2vopOTPOrl24jT1pkhVKIhdHY3HX
g2AnXeuwWNXSmZY60vcdvNQ4WWZQWsNxKxS7/2gG6KPpS7cW609OBxwmYDMvZRgu
FFmKy0Iy1XOtijtX8oqQkL9Nm8BkW/SRlvUZ8s0klUvCcxQxRGQHFEjCNL0=
-----END CERTIFICATE-----
