Certificate:
    Data:
        Version: 3 (0x2)
        Serial Number: 6 (0x6)
        Signature Algorithm: sha1WithRSAEncryption
        Issuer: CN=RootCA, OU=Basho Engineering, O=Basho, L=Cambridge, MA, C=US/emailAddress=riak@basho.com
        Validity
            Not Before: Nov 22 19:55:02 2014 GMT
            Not After : Nov 21 19:55:02 2024 GMT
        Subject: CN=site5.basho.com
        Subject Public Key Info:
            Public Key Algorithm: rsaEncryption
            RSA Public Key: (2048 bit)
                Modulus (2048 bit):
                    00:b9:05:a1:9d:b5:05:a4:ac:51:49:10:79:60:52:
                    53:42:fd:14:71:df:b0:33:94:44:3d:65:e0:48:00:
                    a9:eb:5d:93:c1:f2:ea:dd:07:5f:0f:52:ad:97:8c:
                    91:13:4b:f1:d4:fe:5a:29:b1:27:19:7e:20:6a:db:
                    16:b5:da:b7:c3:e2:d0:18:5f:21:7e:12:8f:6f:63:
                    bb:12:b8:9f:3f:3b:ad:23:a4:1b:4f:34:a9:ab:2a:
                    36:3f:1a:35:64:4d:77:d0:2e:ff:6c:08:05:8f:47:
                    16:1e:2e:1b:36:7c:49:3d:af:2d:ee:a4:ce:1a:12:
                    4b:de:bb:a3:9e:9d:a7:64:85:5f:bb:4d:88:b1:88:
                    d2:69:08:e4:37:94:82:02:de:d1:c0:18:be:b6:cb:
                    eb:99:38:88:3b:b5:47:2a:c3:72:32:8a:b1:ae:bb:
                    7f:07:ca:cd:42:6c:a2:27:e5:89:d9:ad:85:aa:ef:
                    78:91:cd:b6:36:63:78:91:9b:04:f7:0e:a3:4a:3a:
                    d1:9e:9e:30:59:12:28:f5:5a:f9:ba:e6:34:4e:a9:
                    72:47:75:23:6d:54:cb:72:86:4f:4d:78:de:eb:52:
                    e9:92:3a:9c:94:c9:ce:18:55:6b:99:1b:c1:c5:1c:
                    49:76:3a:8e:5f:4e:fe:ff:b3:18:0c:5c:01:85:ed:
                    f7:1b
                Exponent: 65537 (0x10001)
        X509v3 extensions:
            X509v3 Basic Constraints: 
                CA:FALSE
            X509v3 Key Usage: 
                Digital Signature, Non Repudiation, Key Encipherment
            X509v3 Subject Key Identifier: 
                B2:43:28:37:28:58:5E:F3:C9:4B:5A:9F:68:11:3E:0D:14:E3:72:C7
            X509v3 Authority Key Identifier: 
                keyid:C9:9C:C2:8B:3B:95:13:ED:A6:68:1B:99:E1:7E:9E:BD:A7:2C:0E:7B
                DirName:/CN=RootCA/OU=Basho Engineering/O=Basho/L=Cambridge, MA/C=US/emailAddress=riak@basho.com
                serial:CF:AB:F8:2B:5F:A4:9F:A7

            X509v3 Subject Alternative Name: 
                <EMPTY>

            X509v3 Issuer Alternative Name: 
                email:riak@basho.com
            X509v3 CRL Distribution Points: 
                URI:file:///tmp/riak_test_scratch/certs/RootCA/crl.pem

    Signature Algorithm: sha1WithRSAEncryption
        34:1b:ac:1d:b0:61:37:76:ec:59:af:b3:19:cf:6b:92:c9:34:
        c1:90:2b:e0:34:a9:cd:a5:81:e5:62:da:0c:0b:f2:4f:d1:a4:
        37:b8:c7:d2:7d:78:e4:68:ac:37:af:42:a5:b7:92:f3:aa:6a:
        d3:ef:8f:ff:05:ed:aa:01:34:58:af:3b:ec:b0:69:41:f7:9f:
        dd:fe:c4:b6:f9:be:3a:46:36:a0:5f:8e:85:e5:8b:54:6a:d1:
        95:e1:75:8f:18:cf:29:95:e3:ae:fa:24:f3:58:98:1c:c5:6c:
        19:84:99:b8:58:88:5c:9f:09:78:85:ce:ab:f7:96:2d:e4:6d:
        8f:9f:fa:78:96:3e:1a:b8:38:3d:a4:09:c1:f1:98:bb:b6:9e:
        6b:8b:04:5f:35:9d:b2:c3:9f:c8:3c:3c:75:40:d8:6a:60:74:
        25:90:99:74:12:56:58:ff:a7:25:21:29:92:26:3a:45:1b:3f:
        87:77:45:73:40:5e:59:80:dc:a2:f1:a2:2e:53:f3:2d:88:a6:
        30:3a:c6:c4:e0:60:7c:fe:bd:59:15:fb:de:05:e0:cc:b8:3c:
        b1:b0:eb:27:e0:95:cb:70:98:0c:2c:be:4c:bb:9d:87:55:92:
        60:f9:8a:a6:6e:99:19:d0:70:ee:33:e1:6c:c6:6b:4d:eb:54:
        ed:da:63:77
-----BEGIN CERTIFICATE-----
MIIEeDCCA2CgAwIBAgIBBjANBgkqhkiG9w0BAQUFADCBgTEPMA0GA1UEAwwGUm9v
dENBMRowGAYDVQQLDBFCYXNobyBFbmdpbmVlcmluZzEOMAwGA1UECgwFQmFzaG8x
FjAUBgNVBAcMDUNhbWJyaWRnZSwgTUExCzAJBgNVBAYTAlVTMR0wGwYJKoZIhvcN
AQkBFg5yaWFrQGJhc2hvLmNvbTAeFw0xNDExMjIxOTU1MDJaFw0yNDExMjExOTU1
MDJaMBoxGDAWBgNVBAMMD3NpdGU1LmJhc2hvLmNvbTCCASIwDQYJKoZIhvcNAQEB
BQADggEPADCCAQoCggEBALkFoZ21BaSsUUkQeWBSU0L9FHHfsDOURD1l4EgAqetd
k8Hy6t0HXw9SrZeMkRNL8dT+WimxJxl+IGrbFrXat8Pi0BhfIX4Sj29juxK4nz87
rSOkG080qasqNj8aNWRNd9Au/2wIBY9HFh4uGzZ8ST2vLe6kzhoSS967o56dp2SF
X7tNiLGI0mkI5DeUggLe0cAYvrbL65k4iDu1RyrDcjKKsa67fwfKzUJsoiflidmt
harveJHNtjZjeJGbBPcOo0o60Z6eMFkSKPVa+brmNE6pckd1I21Uy3KGT0143utS
6ZI6nJTJzhhVa5kbwcUcSXY6jl9O/v+zGAxcAYXt9xsCAwEAAaOCAV8wggFbMAkG
A1UdEwQCMAAwCwYDVR0PBAQDAgXgMB0GA1UdDgQWBBSyQyg3KFhe88lLWp9oET4N
FONyxzCBtgYDVR0jBIGuMIGrgBTJnMKLO5UT7aZoG5nhfp69pywOe6GBh6SBhDCB
gTEPMA0GA1UEAwwGUm9vdENBMRowGAYDVQQLDBFCYXNobyBFbmdpbmVlcmluZzEO
MAwGA1UECgwFQmFzaG8xFjAUBgNVBAcMDUNhbWJyaWRnZSwgTUExCzAJBgNVBAYT
AlVTMR0wGwYJKoZIhvcNAQkBFg5yaWFrQGJhc2hvLmNvbYIJAM+r+CtfpJ+nMAkG
A1UdEQQCMAAwGQYDVR0SBBIwEIEOcmlha0BiYXNoby5jb20wQwYDVR0fBDwwOjA4
oDagNIYyZmlsZTovLy90bXAvcmlha190ZXN0X3NjcmF0Y2gvY2VydHMvUm9vdENB
L2NybC5wZW0wDQYJKoZIhvcNAQEFBQADggEBADQbrB2wYTd27FmvsxnPa5LJNMGQ
K+A0qc2lgeVi2gwL8k/RpDe4x9J9eORorDevQqW3kvOqatPvj/8F7aoBNFivO+yw
aUH3n93+xLb5vjpGNqBfjoXli1Rq0ZXhdY8YzymV4676JPNYmBzFbBmEmbhYiFyf
CXiFzqv3li3kbY+f+niWPhq4OD2kCcHxmLu2nmuLBF81nbLDn8g8PHVA2GpgdCWQ
mXQSVlj/pyUhKZImOkUbP4d3RXNAXlmA3KLxoi5T8y2IpjA6xsTgYHz+vVkV+94F
4My4PLGw6yfglctwmAwsvky7nYdVkmD5iqZumRnQcO4z4WzGa03rVO3aY3c=
-----END CERTIFICATE-----
