Certificate:
    Data:
        Version: 3 (0x2)
        Serial Number: 1 (0x1)
        Signature Algorithm: sha1WithRSAEncryption
        Issuer: CN=rootCA
        Validity
            Not Before: Oct 28 18:09:49 2014 GMT
            Not After : Sep  5 18:09:49 2024 GMT
        Subject: CN=site5.basho.com
        Subject Public Key Info:
            Public Key Algorithm: rsaEncryption
            RSA Public Key: (2048 bit)
                Modulus (2048 bit):
                    00:c2:de:49:f9:ae:79:02:8a:01:43:44:5e:9d:38:
                    44:62:91:7b:f6:e5:80:2d:2c:07:26:37:1e:9d:d8:
                    61:b2:01:c6:53:56:4b:24:47:b8:c4:ab:c7:ed:0d:
                    7e:37:c8:f1:33:d5:a4:2a:c8:e3:e6:db:7d:84:e4:
                    69:88:bd:02:c7:e3:b4:1b:57:5d:a9:09:06:5e:48:
                    73:14:44:85:58:aa:9f:77:1a:67:81:b4:77:f0:2f:
                    3a:37:95:6a:af:3d:d9:af:9a:20:cc:cf:f2:f4:1d:
                    f7:da:f7:a2:a4:43:71:40:15:f7:75:30:ea:51:0c:
                    b2:30:75:88:bf:dc:6e:4f:50:04:2f:b4:24:bf:1e:
                    55:93:20:13:a4:2a:cf:b1:7c:0d:e5:63:06:c7:7d:
                    61:b1:b8:36:0e:d0:c0:b1:20:42:ec:a1:c2:92:c9:
                    91:a7:17:2a:94:b5:90:23:84:d6:10:75:cd:74:95:
                    91:5c:b5:b0:99:c9:75:2c:5a:f2:58:d0:f9:b4:64:
                    14:4f:fb:d0:20:08:93:34:4d:07:bc:3d:a8:5c:ce:
                    70:e9:85:ad:d1:12:15:4b:72:37:2b:5c:40:4e:91:
                    5e:11:c1:9f:db:5d:ba:54:62:61:82:36:c6:22:85:
                    d5:eb:af:bd:4d:18:f8:5d:64:58:d4:9b:69:d4:3c:
                    33:bb
                Exponent: 65537 (0x10001)
        X509v3 extensions:
            X509v3 Basic Constraints: critical
                CA:FALSE
            X509v3 Key Usage: critical
                Digital Signature, Non Repudiation, Key Encipherment
            X509v3 Subject Key Identifier: 
                EB:B5:AB:37:0A:6A:67:15:CA:C6:0C:2F:5B:53:BB:47:D7:4A:49:8F
            X509v3 Authority Key Identifier: 
                keyid:BB:78:3C:60:F6:25:7E:5A:E0:24:9D:08:2D:8C:57:8A:6F:4E:B2:A1
                DirName:/CN=rootCA
                serial:FF:92:98:3C:17:12:4C:91

            X509v3 Issuer Alternative Name: 
                <EMPTY>

            X509v3 CRL Distribution Points: 
                URI:file:///tmp/riak_test_scratch/certs/rootCA/crl.pem
                URI:http://localhost:8000/rootCA/crl.pem

    Signature Algorithm: sha1WithRSAEncryption
        19:4c:7e:48:b0:4f:b8:2f:94:52:d3:97:37:e9:73:c7:e5:a0:
        d8:3c:83:18:ae:9a:51:8b:09:91:f3:b8:c8:c7:7c:d5:8b:f2:
        fe:a5:e1:52:d9:a5:f5:b2:39:eb:59:3e:04:c8:30:1e:d9:67:
        84:f7:c9:0d:41:e7:df:af:59:8c:af:ba:51:f8:db:e9:19:95:
        89:40:da:ef:4e:cd:d5:00:39:11:e6:3e:d1:f5:ea:3d:80:cf:
        31:d1:19:71:35:0e:df:52:a5:78:54:ef:7a:8f:79:6a:82:c9:
        78:36:25:e7:de:de:1e:db:ff:8c:ba:05:e3:e0:a2:e9:00:9f:
        a8:c2:ef:eb:9b:83:c1:4e:fc:1d:b8:b6:55:67:3f:a2:f2:01:
        4b:6d:3d:d0:57:1e:dd:81:2c:ea:ad:0f:b5:27:d2:37:6f:2d:
        51:3b:5e:a5:91:78:03:5f:7e:35:d1:04:a8:80:b2:17:73:03:
        03:be:81:83:24:db:d1:59:c3:a9:b0:44:34:7b:78:f7:3d:a4:
        65:98:bb:4f:a7:c4:c5:21:0d:7a:68:89:1c:40:1d:46:ed:4d:
        9b:a2:3a:aa:ae:8e:c4:51:94:cb:92:f5:82:b7:9f:1b:56:99:
        ba:55:45:d9:70:03:f2:81:b3:5a:df:72:9d:04:a9:85:07:1a:
        af:09:ac:d6
-----BEGIN CERTIFICATE-----
MIIDpjCCAo6gAwIBAgIBATANBgkqhkiG9w0BAQUFADARMQ8wDQYDVQQDDAZyb290
Q0EwHhcNMTQxMDI4MTgwOTQ5WhcNMjQwOTA1MTgwOTQ5WjAaMRgwFgYDVQQDDA9z
aXRlNS5iYXNoby5jb20wggEiMA0GCSqGSIb3DQEBAQUAA4IBDwAwggEKAoIBAQDC
3kn5rnkCigFDRF6dOERikXv25YAtLAcmNx6d2GGyAcZTVkskR7jEq8ftDX43yPEz
1aQqyOPm232E5GmIvQLH47QbV12pCQZeSHMURIVYqp93GmeBtHfwLzo3lWqvPdmv
miDMz/L0Hffa96KkQ3FAFfd1MOpRDLIwdYi/3G5PUAQvtCS/HlWTIBOkKs+xfA3l
YwbHfWGxuDYO0MCxIELsocKSyZGnFyqUtZAjhNYQdc10lZFctbCZyXUsWvJY0Pm0
ZBRP+9AgCJM0TQe8PahcznDpha3REhVLcjcrXEBOkV4RwZ/bXbpUYmGCNsYihdXr
r71NGPhdZFjUm2nUPDO7AgMBAAGjgf8wgfwwDAYDVR0TAQH/BAIwADAOBgNVHQ8B
Af8EBAMCBeAwHQYDVR0OBBYEFOu1qzcKamcVysYML1tTu0fXSkmPMEEGA1UdIwQ6
MDiAFLt4PGD2JX5a4CSdCC2MV4pvTrKhoRWkEzARMQ8wDQYDVQQDDAZyb290Q0GC
CQD/kpg8FxJMkTAJBgNVHRIEAjAAMG8GA1UdHwRoMGYwOKA2oDSGMmZpbGU6Ly8v
dG1wL3JpYWtfdGVzdF9zY3JhdGNoL2NlcnRzL3Jvb3RDQS9jcmwucGVtMCqgKKAm
hiRodHRwOi8vbG9jYWxob3N0OjgwMDAvcm9vdENBL2NybC5wZW0wDQYJKoZIhvcN
AQEFBQADggEBABlMfkiwT7gvlFLTlzfpc8floNg8gxiumlGLCZHzuMjHfNWL8v6l
4VLZpfWyOetZPgTIMB7ZZ4T3yQ1B59+vWYyvulH42+kZlYlA2u9OzdUAORHmPtH1
6j2AzzHRGXE1Dt9SpXhU73qPeWqCyXg2Jefe3h7b/4y6BePgoukAn6jC7+ubg8FO
/B24tlVnP6LyAUttPdBXHt2BLOqtD7Un0jdvLVE7XqWReANffjXRBKiAshdzAwO+
gYMk29FZw6mwRDR7ePc9pGWYu0+nxMUhDXpoiRxAHUbtTZuiOqqujsRRlMuS9YK3
nxtWmbpVRdlwA/KBs1rfcp0EqYUHGq8JrNY=
-----END CERTIFICATE-----
