Certificate:
    Data:
        Version: 3 (0x2)
        Serial Number: 3 (0x3)
        Signature Algorithm: sha1WithRSAEncryption
        Issuer: CN=rootCA
        Validity
            Not Before: Oct 28 18:09:49 2014 GMT
            Not After : Sep  5 18:09:49 2024 GMT
        Subject: CN=site6.basho.com
        Subject Public Key Info:
            Public Key Algorithm: rsaEncryption
            RSA Public Key: (2048 bit)
                Modulus (2048 bit):
                    00:ba:95:4e:75:0d:32:77:ec:39:73:0a:71:5a:45:
                    3c:2d:a8:4c:4e:a1:ad:2b:fe:76:d1:8d:95:2e:19:
                    4a:03:19:2a:6d:3c:bb:4f:e0:b6:04:8c:b7:90:df:
                    79:23:13:e0:ee:dc:c5:55:37:4d:fc:3e:2d:1f:b6:
                    75:74:5b:be:52:7a:50:22:22:e8:a8:da:dd:77:8e:
                    a1:68:61:08:99:18:c3:c0:f8:4b:42:52:15:d9:5e:
                    9c:bc:fc:ae:5b:c7:59:ed:24:7b:7e:79:c4:ad:89:
                    58:0d:c8:ca:0f:b8:2f:71:e4:6e:09:9a:71:3c:10:
                    c5:b1:81:7b:fe:b3:79:ca:12:a7:ef:ef:f9:1a:f3:
                    55:d9:f6:20:a0:2e:e4:af:f3:21:47:58:b7:60:99:
                    f1:ab:31:90:fa:53:e6:51:d8:49:2d:b2:7e:a9:e6:
                    77:46:d3:f1:c9:47:b8:a8:df:c9:9f:0c:d4:24:77:
                    95:0e:bf:29:ce:06:ae:16:64:02:f1:77:2c:b5:ce:
                    f1:db:ad:24:42:70:4a:2d:9f:a3:0e:a8:54:d1:27:
                    60:99:53:54:e0:27:d1:2a:8e:ef:27:a7:26:ae:27:
                    1e:26:3f:ae:45:fb:0d:2c:26:48:93:c0:d5:0c:25:
                    b7:18:8f:c5:b3:2f:6f:9c:09:53:24:51:b0:8e:7c:
                    66:69
                Exponent: 65537 (0x10001)
        X509v3 extensions:
            X509v3 Basic Constraints: critical
                CA:FALSE
            X509v3 Key Usage: critical
                Digital Signature, Non Repudiation, Key Encipherment
            X509v3 Subject Key Identifier: 
                82:98:48:DD:86:F5:2E:0E:76:A6:FC:26:BD:FB:BF:2B:02:AE:A2:B5
            X509v3 Authority Key Identifier: 
                keyid:BB:78:3C:60:F6:25:7E:5A:E0:24:9D:08:2D:8C:57:8A:6F:4E:B2:A1
                DirName:/CN=rootCA
                serial:FF:92:98:3C:17:12:4C:91

            X509v3 Issuer Alternative Name: 
                <EMPTY>

            X509v3 CRL Distribution Points: 
                URI:file:///tmp/riak_test_scratch/certs/rootCA/crl.pem
                URI:http://localhost:8000/rootCA/crl.pem

    Signature Algorithm: sha1WithRSAEncryption
        61:00:79:2e:d3:80:15:cb:60:1f:ce:5f:a1:5d:45:65:20:b1:
        30:e0:cb:58:9e:78:b1:d1:db:65:8c:d2:f5:35:38:51:d2:3d:
        a5:c0:7d:28:a4:bc:d0:37:ba:00:71:68:66:94:af:aa:86:4d:
        df:da:18:b4:65:c7:e6:1d:ef:9b:41:2e:0e:fc:38:71:e6:c5:
        c2:fe:c3:a4:4f:b0:7e:2b:0f:60:b9:bd:b6:b8:77:d3:c0:bc:
        78:2b:34:cc:a1:da:84:57:c0:9a:a8:51:d0:63:9c:55:db:21:
        6e:a3:28:38:c8:c5:59:f4:19:ea:9b:2a:f0:1e:1b:3a:5e:5c:
        34:2d:3f:a4:5f:1a:ac:b8:a5:42:a1:29:96:71:a6:cc:b6:0a:
        f5:6b:f6:ed:a9:cd:8a:08:ac:bc:2c:2b:58:a6:06:89:51:0b:
        29:20:57:d5:34:3c:8f:b6:8a:df:a9:f3:ae:78:a5:34:27:56:
        aa:91:39:6b:db:04:fc:ae:87:37:3e:83:ba:0f:22:33:09:86:
        14:25:86:6b:95:9d:93:b4:03:bf:76:4e:5e:b4:9f:48:9e:bc:
        e3:8d:e8:69:99:cd:b6:0a:50:29:f7:e6:1a:1e:29:96:86:8f:
        13:8c:fc:74:80:f8:2c:3e:1d:65:79:5c:9b:61:16:e2:53:8d:
        3d:38:0d:2e
-----BEGIN CERTIFICATE-----
MIIDpjCCAo6gAwIBAgIBAzANBgkqhkiG9w0BAQUFADARMQ8wDQYDVQQDDAZyb290
Q0EwHhcNMTQxMDI4MTgwOTQ5WhcNMjQwOTA1MTgwOTQ5WjAaMRgwFgYDVQQDDA9z
aXRlNi5iYXNoby5jb20wggEiMA0GCSqGSIb3DQEBAQUAA4IBDwAwggEKAoIBAQC6
lU51DTJ37DlzCnFaRTwtqExOoa0r/nbRjZUuGUoDGSptPLtP4LYEjLeQ33kjE+Du
3MVVN038Pi0ftnV0W75SelAiIuio2t13jqFoYQiZGMPA+EtCUhXZXpy8/K5bx1nt
JHt+ecStiVgNyMoPuC9x5G4JmnE8EMWxgXv+s3nKEqfv7/ka81XZ9iCgLuSv8yFH
WLdgmfGrMZD6U+ZR2Ektsn6p5ndG0/HJR7io38mfDNQkd5UOvynOBq4WZALxdyy1
zvHbrSRCcEotn6MOqFTRJ2CZU1TgJ9Eqju8npyauJx4mP65F+w0sJkiTwNUMJbcY
j8WzL2+cCVMkUbCOfGZpAgMBAAGjgf8wgfwwDAYDVR0TAQH/BAIwADAOBgNVHQ8B
Af8EBAMCBeAwHQYDVR0OBBYEFIKYSN2G9S4Odqb8Jr37vysCrqK1MEEGA1UdIwQ6
MDiAFLt4PGD2JX5a4CSdCC2MV4pvTrKhoRWkEzARMQ8wDQYDVQQDDAZyb290Q0GC
CQD/kpg8FxJMkTAJBgNVHRIEAjAAMG8GA1UdHwRoMGYwOKA2oDSGMmZpbGU6Ly8v
dG1wL3JpYWtfdGVzdF9zY3JhdGNoL2NlcnRzL3Jvb3RDQS9jcmwucGVtMCqgKKAm
hiRodHRwOi8vbG9jYWxob3N0OjgwMDAvcm9vdENBL2NybC5wZW0wDQYJKoZIhvcN
AQEFBQADggEBAGEAeS7TgBXLYB/OX6FdRWUgsTDgy1ieeLHR22WM0vU1OFHSPaXA
fSikvNA3ugBxaGaUr6qGTd/aGLRlx+Yd75tBLg78OHHmxcL+w6RPsH4rD2C5vba4
d9PAvHgrNMyh2oRXwJqoUdBjnFXbIW6jKDjIxVn0GeqbKvAeGzpeXDQtP6RfGqy4
pUKhKZZxpsy2CvVr9u2pzYoIrLwsK1imBolRCykgV9U0PI+2it+p8654pTQnVqqR
OWvbBPyuhzc+g7oPIjMJhhQlhmuVnZO0A792Tl60n0ievOON6GmZzbYKUCn35hoe
KZaGjxOM/HSA+Cw+HWV5XJthFuJTjT04DS4=
-----END CERTIFICATE-----
