Certificate:
    Data:
        Version: 3 (0x2)
        Serial Number: 1 (0x1)
        Signature Algorithm: sha1WithRSAEncryption
        Issuer: CN=IntCA, OU=Basho Engineering, O=Basho, C=US, L=Cambridge, MA/emailAddress=riak@basho.com
        Validity
            Not Before: Nov 22 19:55:02 2014 GMT
            Not After : Nov 21 19:55:02 2024 GMT
        Subject: CN=site1.basho.com, OU=Basho Engineering, O=Basho, C=US, L=Cambridge, MA/emailAddress=riak@basho.com
        Subject Public Key Info:
            Public Key Algorithm: rsaEncryption
            RSA Public Key: (2048 bit)
                Modulus (2048 bit):
                    00:95:5c:54:d2:73:60:12:36:d1:47:98:18:e8:2e:
                    b7:f7:42:c8:ca:fd:12:fb:0d:e3:5f:b8:4d:b7:d7:
                    b2:f0:fd:4b:c7:96:cb:a8:64:1d:4f:a6:b1:94:61:
                    3d:8a:5e:29:c7:9a:12:28:55:e0:27:a7:38:d1:f6:
                    48:d5:de:aa:e4:e2:97:36:d7:5b:c7:66:98:11:b8:
                    68:c4:77:3f:a5:c9:e0:a9:46:cb:ec:5b:05:0d:5b:
                    a8:1c:3f:16:47:9f:35:4f:f6:58:21:b6:2c:c3:56:
                    1e:e9:20:56:62:39:8d:ca:e4:08:e8:8f:bb:0a:b8:
                    4e:c1:ba:2e:c8:09:f6:9a:f4:72:de:ef:fd:f1:e4:
                    2e:92:fb:d9:ee:9e:2f:c2:d1:de:00:9a:5a:ff:b7:
                    a2:96:6c:16:ec:83:e4:29:38:56:1b:5a:ab:4a:9b:
                    17:32:c2:9a:7d:3d:eb:5b:0c:3d:69:e3:99:68:f4:
                    62:e1:3e:0e:89:f0:f3:df:9b:ad:60:38:6a:90:1e:
                    d5:48:c1:5d:c8:3a:5b:ef:d0:13:e8:7d:58:e7:9d:
                    b4:7f:56:73:c1:5c:9c:cf:fc:b5:bc:a9:ef:62:cf:
                    9a:b2:28:04:fa:88:37:c3:9d:18:a5:39:6a:06:f3:
                    59:17:f6:4a:be:83:ca:84:79:22:4a:b5:77:a7:ce:
                    04:9d
                Exponent: 65537 (0x10001)
        X509v3 extensions:
            X509v3 Basic Constraints: 
                CA:FALSE
            X509v3 Key Usage: 
                Digital Signature, Non Repudiation, Key Encipherment
            X509v3 Subject Key Identifier: 
                A4:06:4D:CE:DA:41:92:51:14:C6:D1:31:01:2B:A3:73:B1:FF:BB:FE
            X509v3 Authority Key Identifier: 
                keyid:AC:E8:50:19:36:24:15:DF:2D:3C:01:8B:F1:8A:64:E7:7D:36:B1:40
                DirName:/CN=RootCA/OU=Basho Engineering/O=Basho/L=Cambridge, MA/C=US/emailAddress=riak@basho.com
                serial:01

            X509v3 Subject Alternative Name: 
                email:riak@basho.com
            X509v3 Issuer Alternative Name: 
                email:riak@basho.com
            X509v3 CRL Distribution Points: 
                URI:file:///tmp/riak_test_scratch/certs/IntCA/crl.pem

    Signature Algorithm: sha1WithRSAEncryption
        55:50:b9:d9:35:21:fb:c9:b6:f1:38:0d:10:30:86:81:16:b8:
        31:f9:ba:a8:5a:29:3c:88:a3:06:e8:9f:a8:df:da:63:52:0d:
        7e:3c:e6:16:f2:d7:72:5d:7e:44:4a:98:1c:9b:65:49:23:0b:
        ad:57:f4:58:a9:cb:fb:45:8c:81:15:9e:74:c5:0d:6f:c6:b2:
        ce:4d:a8:2d:1d:6f:b0:0c:ad:af:b5:87:0f:bd:1d:2a:6d:cc:
        06:ce:bd:3f:ec:0d:e0:9d:40:34:9d:3c:1c:a6:1f:59:ef:a5:
        c6:e9:2e:38:99:8e:3c:cc:43:94:81:e6:38:73:ee:a1:31:5c:
        a3:c9:e0:fd:23:9a:f6:e4:17:27:d4:22:65:2f:b2:9e:c6:9b:
        5e:e2:89:43:3b:18:b7:d6:79:df:76:85:b4:ff:3f:bc:7e:82:
        ee:e3:4f:ff:b8:d3:1a:5e:9e:ba:ae:01:a6:9d:ea:f0:db:62:
        fc:bc:92:eb:24:5c:0d:74:1c:96:b5:72:75:06:e7:ee:65:96:
        51:6c:a6:e0:56:fc:4e:dd:05:7c:f3:61:5a:10:03:0f:cd:c4:
        44:5e:9f:46:49:4c:e8:9f:45:64:cd:0e:7d:23:aa:f6:89:e1:
        d0:f0:32:47:7e:fa:df:13:7e:2d:c6:19:65:d3:2b:d2:b0:01:
        a9:0d:a7:da
-----BEGIN CERTIFICATE-----
MIIE7zCCA9egAwIBAgIBATANBgkqhkiG9w0BAQUFADCBgDEOMAwGA1UEAwwFSW50
Q0ExGjAYBgNVBAsMEUJhc2hvIEVuZ2luZWVyaW5nMQ4wDAYDVQQKDAVCYXNobzEL
MAkGA1UEBhMCVVMxFjAUBgNVBAcMDUNhbWJyaWRnZSwgTUExHTAbBgkqhkiG9w0B
CQEWDnJpYWtAYmFzaG8uY29tMB4XDTE0MTEyMjE5NTUwMloXDTI0MTEyMTE5NTUw
MlowgYoxGDAWBgNVBAMMD3NpdGUxLmJhc2hvLmNvbTEaMBgGA1UECwwRQmFzaG8g
RW5naW5lZXJpbmcxDjAMBgNVBAoMBUJhc2hvMQswCQYDVQQGEwJVUzEWMBQGA1UE
BwwNQ2FtYnJpZGdlLCBNQTEdMBsGCSqGSIb3DQEJARYOcmlha0BiYXNoby5jb20w
ggEiMA0GCSqGSIb3DQEBAQUAA4IBDwAwggEKAoIBAQCVXFTSc2ASNtFHmBjoLrf3
QsjK/RL7DeNfuE2317Lw/UvHlsuoZB1PprGUYT2KXinHmhIoVeAnpzjR9kjV3qrk
4pc211vHZpgRuGjEdz+lyeCpRsvsWwUNW6gcPxZHnzVP9lghtizDVh7pIFZiOY3K
5Ajoj7sKuE7Bui7ICfaa9HLe7/3x5C6S+9nuni/C0d4Amlr/t6KWbBbsg+QpOFYb
WqtKmxcywpp9PetbDD1p45lo9GLhPg6J8PPfm61gOGqQHtVIwV3IOlvv0BPofVjn
nbR/VnPBXJzP/LW8qe9iz5qyKAT6iDfDnRilOWoG81kX9kq+g8qEeSJKtXenzgSd
AgMBAAGjggFmMIIBYjAJBgNVHRMEAjAAMAsGA1UdDwQEAwIF4DAdBgNVHQ4EFgQU
pAZNztpBklEUxtExASujc7H/u/4wga4GA1UdIwSBpjCBo4AUrOhQGTYkFd8tPAGL
8Ypk5302sUChgYekgYQwgYExDzANBgNVBAMMBlJvb3RDQTEaMBgGA1UECwwRQmFz
aG8gRW5naW5lZXJpbmcxDjAMBgNVBAoMBUJhc2hvMRYwFAYDVQQHDA1DYW1icmlk
Z2UsIE1BMQswCQYDVQQGEwJVUzEdMBsGCSqGSIb3DQEJARYOcmlha0BiYXNoby5j
b22CAQEwGQYDVR0RBBIwEIEOcmlha0BiYXNoby5jb20wGQYDVR0SBBIwEIEOcmlh
a0BiYXNoby5jb20wQgYDVR0fBDswOTA3oDWgM4YxZmlsZTovLy90bXAvcmlha190
ZXN0X3NjcmF0Y2gvY2VydHMvSW50Q0EvY3JsLnBlbTANBgkqhkiG9w0BAQUFAAOC
AQEAVVC52TUh+8m28TgNEDCGgRa4Mfm6qFopPIijBuifqN/aY1INfjzmFvLXcl1+
REqYHJtlSSMLrVf0WKnL+0WMgRWedMUNb8ayzk2oLR1vsAytr7WHD70dKm3MBs69
P+wN4J1ANJ08HKYfWe+lxukuOJmOPMxDlIHmOHPuoTFco8ng/SOa9uQXJ9QiZS+y
nsabXuKJQzsYt9Z533aFtP8/vH6C7uNP/7jTGl6euq4Bpp3q8Nti/LyS6yRcDXQc
lrVydQbn7mWWUWym4Fb8Tt0FfPNhWhADD83ERF6fRklM6J9FZM0OfSOq9onh0PAy
R3763xN+LcYZZdMr0rABqQ2n2g==
-----END CERTIFICATE-----
