Certificate:
    Data:
        Version: 3 (0x2)
        Serial Number: 2 (0x2)
    Signature Algorithm: sha1WithRSAEncryption
        Issuer: CN=rootCA, OU=Basho Engineering, O=Basho, L=Cambridge, MA, C=US/emailAddress=riak@basho.com
        Validity
            Not Before: Oct 20 21:50:35 2014 GMT
            Not After : Aug 28 21:50:35 2024 GMT
        Subject: CN=site4.basho.com, OU=Basho Engineering, O=Basho, C=US, L=Cambridge, MA/emailAddress=riak@basho.com
        Subject Public Key Info:
            Public Key Algorithm: rsaEncryption
                Public-Key: (2048 bit)
                Modulus:
                    00:cb:c7:a6:57:ed:30:2e:ce:12:3f:e7:ad:30:28:
                    f1:b2:0a:d7:82:04:2f:d0:1c:f0:bc:93:07:66:15:
                    df:73:a2:67:c6:00:11:cb:d0:15:17:1e:28:c8:73:
                    19:0b:f4:72:00:24:ed:e8:4f:be:bf:af:fc:b3:b0:
                    ed:8a:ea:80:74:b1:c8:98:28:42:51:ae:6a:c2:cc:
                    cc:9e:94:66:3a:94:06:95:54:a1:9a:6e:b6:89:2a:
                    c3:3b:44:b4:38:6b:94:32:57:7b:ac:d1:59:32:2a:
                    ff:14:fe:ac:57:53:f6:54:d2:2a:3d:85:c4:96:97:
                    54:5c:38:d8:6b:19:07:7b:8c:52:1a:fd:bc:68:ff:
                    87:6c:7c:73:ac:bc:6b:60:14:32:5e:f0:e5:e2:f8:
                    52:12:57:e6:3a:d9:df:1b:47:db:43:87:4f:eb:5c:
                    96:96:89:94:70:56:6b:3d:2e:c6:a4:eb:8b:23:42:
                    bf:68:2c:2e:8f:5e:90:95:53:93:44:a0:e6:73:91:
                    30:91:c6:f4:a4:51:53:b2:d7:6b:0e:e8:40:e4:a9:
                    bd:58:c9:e8:a1:63:b2:ce:14:10:91:c5:7a:5d:0d:
                    fb:f3:47:05:3c:ae:86:aa:7a:eb:d6:1b:6a:f5:c7:
                    f1:7a:68:d3:3f:98:03:c3:bf:ab:3e:e0:78:f3:13:
                    29:2f
                Exponent: 65537 (0x10001)
        X509v3 extensions:
            X509v3 Basic Constraints: 
                CA:FALSE
            X509v3 Key Usage: 
                Digital Signature, Non Repudiation, Key Encipherment
            X509v3 Subject Key Identifier: 
                4E:F5:78:E7:D8:1C:F2:61:F2:4B:46:12:60:52:F0:9C:60:7F:9C:B1
            X509v3 Authority Key Identifier: 
                keyid:0B:FA:5C:C3:A7:53:35:6B:B8:CE:70:39:5A:43:32:C4:80:80:73:48
                DirName:/CN=rootCA/OU=Basho Engineering/O=Basho/L=Cambridge, MA/C=US/emailAddress=riak@basho.com
                serial:DF:2B:E1:06:46:5B:41:94

            X509v3 Subject Alternative Name: 
                email:riak@basho.com
            X509v3 Issuer Alternative Name: 
                email:riak@basho.com
            X509v3 CRL Distribution Points: 

                Full Name:
                  URI:file:///tmp/tmp.wQ15KHu3lo/rootCA/crl.pem

                Full Name:
                  URI:http://localhost:8000/rootCA/crl.pem

    Signature Algorithm: sha1WithRSAEncryption
         4a:e2:21:6a:80:05:32:de:bb:b7:ea:84:ab:25:61:f7:60:10:
         11:7b:4d:16:a8:4e:c6:9f:ce:6c:98:e6:c8:d5:f0:78:11:8d:
         48:0b:dc:f8:9f:e7:64:11:e3:35:b4:7a:a2:20:cb:8c:58:01:
         26:9a:3a:68:d7:12:88:c3:16:17:2e:47:f0:a1:a9:5b:27:a0:
         58:31:8a:3a:6b:9c:33:cb:ee:20:bd:ef:36:11:2e:fa:e2:cb:
         b7:7e:e4:bc:27:be:fb:7a:27:b2:65:93:f0:86:a5:33:3d:93:
         f5:d8:34:ff:cf:11:8b:b2:b5:cd:28:cf:20:1a:dd:94:8e:c9:
         49:da:4c:28:4c:4f:c3:25:68:5b:5e:5e:45:5d:cb:55:29:06:
         86:83:2b:68:05:ef:27:db:59:e6:65:89:89:ee:56:11:68:0b:
         47:50:10:62:4a:1e:92:4c:25:1d:dc:59:e2:c8:97:37:3a:7f:
         4c:07:13:b8:a3:c4:87:10:0b:9f:1a:7c:26:5c:53:62:17:35:
         ea:62:8d:cf:71:7e:05:1b:5d:a1:b1:e7:d2:51:45:87:f5:68:
         97:98:eb:a6:ff:bf:c4:6e:b0:ab:d3:c0:c4:60:84:d0:3b:5a:
         2b:f3:e9:48:60:95:4c:e0:e4:f7:46:be:33:d6:fc:7e:f0:f7:
         6b:67:80:cb
-----BEGIN CERTIFICATE-----
MIIFHDCCBASgAwIBAgIBAjANBgkqhkiG9w0BAQUFADCBgTEPMA0GA1UEAxMGcm9v
dENBMRowGAYDVQQLExFCYXNobyBFbmdpbmVlcmluZzEOMAwGA1UEChMFQmFzaG8x
FjAUBgNVBAcTDUNhbWJyaWRnZSwgTUExCzAJBgNVBAYTAlVTMR0wGwYJKoZIhvcN
AQkBFg5yaWFrQGJhc2hvLmNvbTAeFw0xNDEwMjAyMTUwMzVaFw0yNDA4MjgyMTUw
MzVaMIGKMRgwFgYDVQQDEw9zaXRlNC5iYXNoby5jb20xGjAYBgNVBAsTEUJhc2hv
IEVuZ2luZWVyaW5nMQ4wDAYDVQQKEwVCYXNobzELMAkGA1UEBhMCVVMxFjAUBgNV
BAcTDUNhbWJyaWRnZSwgTUExHTAbBgkqhkiG9w0BCQEWDnJpYWtAYmFzaG8uY29t
MIIBIjANBgkqhkiG9w0BAQEFAAOCAQ8AMIIBCgKCAQEAy8emV+0wLs4SP+etMCjx
sgrXggQv0BzwvJMHZhXfc6JnxgARy9AVFx4oyHMZC/RyACTt6E++v6/8s7DtiuqA
dLHImChCUa5qwszMnpRmOpQGlVShmm62iSrDO0S0OGuUMld7rNFZMir/FP6sV1P2
VNIqPYXElpdUXDjYaxkHe4xSGv28aP+HbHxzrLxrYBQyXvDl4vhSElfmOtnfG0fb
Q4dP61yWlomUcFZrPS7GpOuLI0K/aCwuj16QlVOTRKDmc5Ewkcb0pFFTstdrDuhA
5Km9WMnooWOyzhQQkcV6XQ3780cFPK6Gqnrr1htq9cfxemjTP5gDw7+rPuB48xMp
LwIDAQABo4IBkjCCAY4wCQYDVR0TBAIwADALBgNVHQ8EBAMCBeAwHQYDVR0OBBYE
FE71eOfYHPJh8ktGEmBS8Jxgf5yxMIG2BgNVHSMEga4wgauAFAv6XMOnUzVruM5w
OVpDMsSAgHNIoYGHpIGEMIGBMQ8wDQYDVQQDEwZyb290Q0ExGjAYBgNVBAsTEUJh
c2hvIEVuZ2luZWVyaW5nMQ4wDAYDVQQKEwVCYXNobzEWMBQGA1UEBxMNQ2FtYnJp
ZGdlLCBNQTELMAkGA1UEBhMCVVMxHTAbBgkqhkiG9w0BCQEWDnJpYWtAYmFzaG8u
Y29tggkA3yvhBkZbQZQwGQYDVR0RBBIwEIEOcmlha0BiYXNoby5jb20wGQYDVR0S
BBIwEIEOcmlha0BiYXNoby5jb20wZgYDVR0fBF8wXTAvoC2gK4YpZmlsZTovLy90
bXAvdG1wLndRMTVLSHUzbG8vcm9vdENBL2NybC5wZW0wKqAooCaGJGh0dHA6Ly9s
b2NhbGhvc3Q6ODAwMC9yb290Q0EvY3JsLnBlbTANBgkqhkiG9w0BAQUFAAOCAQEA
SuIhaoAFMt67t+qEqyVh92AQEXtNFqhOxp/ObJjmyNXweBGNSAvc+J/nZBHjNbR6
oiDLjFgBJpo6aNcSiMMWFy5H8KGpWyegWDGKOmucM8vuIL3vNhEu+uLLt37kvCe+
+3onsmWT8IalMz2T9dg0/88Ri7K1zSjPIBrdlI7JSdpMKExPwyVoW15eRV3LVSkG
hoMraAXvJ9tZ5mWJie5WEWgLR1AQYkoekkwlHdxZ4siXNzp/TAcTuKPEhxALnxp8
JlxTYhc16mKNz3F+BRtdobHn0lFFh/Vol5jrpv+/xG6wq9PAxGCE0DtaK/PpSGCV
TODk90a+M9b8fvD3a2eAyw==
-----END CERTIFICATE-----
