Certificate:
    Data:
        Version: 3 (0x2)
        Serial Number: 11257140779044973934 (0x9c3965e5498a2d6e)
    Signature Algorithm: sha1WithRSAEncryption
        Issuer: C=US, ST=New York, O=Basho, CN=Basho root CA
        Validity
            Not Before: Apr 29 17:04:40 2013 GMT
            Not After : Apr 29 17:04:40 2014 GMT
        Subject: C=US, ST=New York, L=Potsdam, O=Basho, CN=site3.basho.com
        Subject Public Key Info:
            Public Key Algorithm: rsaEncryption
                Public-Key: (1024 bit)
                Modulus:
                    00:b3:29:2e:6f:3f:14:d1:da:49:9d:23:09:c0:23:
                    69:ab:a5:2a:dd:d9:e0:0b:fb:45:d7:f4:65:c3:5a:
                    a5:ab:b1:31:6a:bd:76:0d:4c:11:eb:46:99:d9:7f:
                    4b:b4:af:13:64:20:46:93:85:a6:37:37:ee:c7:56:
                    d0:67:38:84:7a:76:10:92:59:5a:0d:71:0a:53:12:
                    ce:dc:5a:9b:2a:e7:bd:d0:8c:98:c0:b6:10:52:3f:
                    73:1b:20:11:90:81:a4:db:26:13:4b:a0:a0:78:3a:
                    f8:e6:5f:94:1d:02:82:a8:ee:03:09:60:99:32:30:
                    0e:6b:46:4f:71:54:43:6b:57
                Exponent: 65537 (0x10001)
        X509v3 extensions:
            X509v3 Basic Constraints: 
                CA:FALSE
            Netscape Comment: 
                OpenSSL Generated Certificate
            X509v3 Subject Key Identifier: 
                42:0C:6C:37:9D:D8:9B:DD:46:E6:F3:E1:05:CD:A6:EF:A4:83:16:69
            X509v3 Authority Key Identifier: 
                keyid:D3:35:1A:59:0A:6B:4B:8F:2E:4A:86:27:07:9E:40:AB:23:61:A8:88

    Signature Algorithm: sha1WithRSAEncryption
         03:f4:de:63:dc:2f:88:b3:b5:a0:91:f9:ff:e3:07:85:24:fe:
         98:e2:af:f7:34:b5:9a:6c:b1:79:a1:08:e7:83:3f:f3:2d:e8:
         78:15:21:e1:ee:39:c9:0b:b2:ce:12:92:7b:0f:fe:06:6c:9f:
         73:b1:09:40:94:ec:61:c5:62:d0:da:5f:0e:7c:9d:30:a0:f5:
         f0:fc:5a:be:06:b6:b8:e3:99:21:91:f1:13:9e:57:97:16:bf:
         f3:50:c4:29:d0:42:50:c3:a2:ee:11:ed:93:d6:3f:83:0c:ee:
         15:a2:e9:16:0d:ba:f6:41:27:23:60:e8:4d:4c:0c:6e:ce:68:
         21:5c
-----BEGIN CERTIFICATE-----
MIICnTCCAgagAwIBAgIJAJw5ZeVJii1uMA0GCSqGSIb3DQEBBQUAMEgxCzAJBgNV
BAYTAlVTMREwDwYDVQQIDAhOZXcgWW9yazEOMAwGA1UECgwFQmFzaG8xFjAUBgNV
BAMMDUJhc2hvIHJvb3QgQ0EwHhcNMTMwNDI5MTcwNDQwWhcNMTQwNDI5MTcwNDQw
WjBcMQswCQYDVQQGEwJVUzERMA8GA1UECAwITmV3IFlvcmsxEDAOBgNVBAcMB1Bv
dHNkYW0xDjAMBgNVBAoMBUJhc2hvMRgwFgYDVQQDDA9zaXRlMy5iYXNoby5jb20w
gZ8wDQYJKoZIhvcNAQEBBQADgY0AMIGJAoGBALMpLm8/FNHaSZ0jCcAjaaulKt3Z
4Av7Rdf0ZcNapauxMWq9dg1MEetGmdl/S7SvE2QgRpOFpjc37sdW0Gc4hHp2EJJZ
Wg1xClMSztxamyrnvdCMmMC2EFI/cxsgEZCBpNsmE0ugoHg6+OZflB0CgqjuAwlg
mTIwDmtGT3FUQ2tXAgMBAAGjezB5MAkGA1UdEwQCMAAwLAYJYIZIAYb4QgENBB8W
HU9wZW5TU0wgR2VuZXJhdGVkIENlcnRpZmljYXRlMB0GA1UdDgQWBBRCDGw3ndib
3Ubm8+EFzabvpIMWaTAfBgNVHSMEGDAWgBTTNRpZCmtLjy5KhicHnkCrI2GoiDAN
BgkqhkiG9w0BAQUFAAOBgQAD9N5j3C+Is7Wgkfn/4weFJP6Y4q/3NLWabLF5oQjn
gz/zLeh4FSHh7jnJC7LOEpJ7D/4GbJ9zsQlAlOxhxWLQ2l8OfJ0woPXw/Fq+Bra4
45khkfETnleXFr/zUMQp0EJQw6LuEe2T1j+DDO4VoukWDbr2QScjYOhNTAxuzmgh
XA==
-----END CERTIFICATE-----
