Certificate:
    Data:
        Version: 3 (0x2)
        Serial Number: 3 (0x3)
    Signature Algorithm: sha1WithRSAEncryption
        Issuer: CN=childCA, OU=Basho Engineering, O=Basho, C=US, L=Cambridge, MA/emailAddress=riak@basho.com
        Validity
            Not Before: Oct 20 21:50:34 2014 GMT
            Not After : Aug 28 21:50:34 2024 GMT
        Subject: CN=site2.basho.com, OU=Basho Engineering, O=Basho, C=US, L=Cambridge, MA/emailAddress=riak@basho.com
        Subject Public Key Info:
            Public Key Algorithm: rsaEncryption
                Public-Key: (2048 bit)
                Modulus:
                    00:d8:d0:3e:ee:c4:8c:8c:e2:78:f9:da:ee:28:1c:
                    19:27:15:be:68:d9:30:cb:ca:dd:bd:f1:27:62:0c:
                    3e:50:1b:05:db:ce:b6:6b:68:20:3e:6f:30:68:aa:
                    79:f1:e0:39:6b:da:23:17:89:3c:81:e8:ab:4d:68:
                    6f:14:76:63:97:30:23:35:60:31:39:70:10:49:e8:
                    77:c0:db:64:55:b5:00:43:c6:75:77:0c:71:5c:81:
                    dd:34:be:22:87:96:88:90:07:aa:23:84:89:8a:c6:
                    3f:0d:30:6d:97:65:1c:35:46:ce:d6:0b:73:b4:d0:
                    1f:0a:27:7a:e5:b4:bb:22:01:b5:23:56:cc:55:f4:
                    e3:bb:fe:ca:12:9e:50:bc:42:a4:65:33:34:c1:58:
                    da:91:df:58:c3:00:93:fa:83:6d:e3:72:b7:44:af:
                    19:d1:d3:b1:6b:83:91:4c:5d:a4:07:5a:e3:a6:7e:
                    23:b2:75:2f:8a:bf:c3:24:13:20:a7:a9:ab:86:d9:
                    f4:15:9f:33:36:4b:dd:a3:98:e1:e1:e3:d1:28:6b:
                    70:f7:db:3e:a6:27:bd:4c:d9:64:97:e0:32:a1:5d:
                    27:e0:2d:6f:b1:cb:9b:cb:26:97:5b:46:71:16:43:
                    0f:52:ad:ff:3d:d0:27:31:d6:66:83:34:b5:22:6c:
                    d1:69
                Exponent: 65537 (0x10001)
        X509v3 extensions:
            X509v3 Basic Constraints: 
                CA:FALSE
            X509v3 Key Usage: 
                Digital Signature, Non Repudiation, Key Encipherment
            X509v3 Subject Key Identifier: 
                37:7C:A2:8C:07:B3:2C:8B:A6:CD:6E:76:A0:2C:8D:38:2B:79:08:A5
            X509v3 Authority Key Identifier: 
                keyid:26:C2:7A:67:E3:7D:CA:4C:4D:AE:A9:C3:3C:5F:EC:D9:01:F6:E5:2B
                DirName:/CN=rootCA/OU=Basho Engineering/O=Basho/L=Cambridge, MA/C=US/emailAddress=riak@basho.com
                serial:01

            X509v3 Subject Alternative Name: 
                email:riak@basho.com
            X509v3 Issuer Alternative Name: 
                email:riak@basho.com
            X509v3 CRL Distribution Points: 

                Full Name:
                  URI:file:///tmp/tmp.wQ15KHu3lo/childCA/crl.pem

                Full Name:
                  URI:http://localhost:8000/childCA/crl.pem

    Signature Algorithm: sha1WithRSAEncryption
         30:24:57:26:03:a3:e3:2c:69:e6:48:5a:4e:f6:98:01:46:4e:
         22:bc:9c:d2:3e:13:14:07:5b:45:75:f5:23:aa:e7:46:68:d7:
         45:12:2a:fc:51:df:db:3d:25:aa:17:84:29:21:66:66:19:2e:
         92:d6:ce:e2:69:85:bb:ce:f3:7d:10:4e:16:9d:8e:aa:d8:15:
         36:3c:80:ad:7f:ad:9b:98:d5:a9:5b:c3:cf:55:b8:ec:47:4e:
         4f:3c:4a:34:7b:e1:e4:22:33:99:7a:04:a3:ec:08:3e:fe:8b:
         00:af:f8:37:a4:f6:c4:46:35:d6:0c:0d:a6:a3:74:fb:a1:a8:
         a5:80:68:8c:17:46:6e:6d:77:0a:09:db:53:16:50:90:c2:63:
         7b:dd:32:e5:4f:1f:d3:ad:21:fe:d2:f3:1c:4a:a5:65:92:08:
         04:c7:c7:64:38:4f:6e:65:6a:5b:05:64:cc:90:7a:e3:ff:a6:
         c4:79:05:3a:fc:26:c5:e6:6d:d1:ae:b9:9a:24:fe:8f:e1:ae:
         aa:e0:b8:c6:b1:cc:12:4a:37:25:62:e5:d3:76:db:0d:fd:6d:
         d4:e6:e2:5f:e1:f7:8f:17:35:70:f2:5f:03:02:fb:ad:57:6e:
         8c:48:5b:19:dc:b3:1e:26:c8:73:0c:31:46:e3:b6:14:6f:3e:
         55:ea:69:f5
-----BEGIN CERTIFICATE-----
MIIFFzCCA/+gAwIBAgIBAzANBgkqhkiG9w0BAQUFADCBgjEQMA4GA1UEAxMHY2hp
bGRDQTEaMBgGA1UECxMRQmFzaG8gRW5naW5lZXJpbmcxDjAMBgNVBAoTBUJhc2hv
MQswCQYDVQQGEwJVUzEWMBQGA1UEBxMNQ2FtYnJpZGdlLCBNQTEdMBsGCSqGSIb3
DQEJARYOcmlha0BiYXNoby5jb20wHhcNMTQxMDIwMjE1MDM0WhcNMjQwODI4MjE1
MDM0WjCBijEYMBYGA1UEAxMPc2l0ZTIuYmFzaG8uY29tMRowGAYDVQQLExFCYXNo
byBFbmdpbmVlcmluZzEOMAwGA1UEChMFQmFzaG8xCzAJBgNVBAYTAlVTMRYwFAYD
VQQHEw1DYW1icmlkZ2UsIE1BMR0wGwYJKoZIhvcNAQkBFg5yaWFrQGJhc2hvLmNv
bTCCASIwDQYJKoZIhvcNAQEBBQADggEPADCCAQoCggEBANjQPu7EjIziePna7igc
GScVvmjZMMvK3b3xJ2IMPlAbBdvOtmtoID5vMGiqefHgOWvaIxeJPIHoq01obxR2
Y5cwIzVgMTlwEEnod8DbZFW1AEPGdXcMcVyB3TS+IoeWiJAHqiOEiYrGPw0wbZdl
HDVGztYLc7TQHwoneuW0uyIBtSNWzFX047v+yhKeULxCpGUzNMFY2pHfWMMAk/qD
beNyt0SvGdHTsWuDkUxdpAda46Z+I7J1L4q/wyQTIKepq4bZ9BWfMzZL3aOY4eHj
0ShrcPfbPqYnvUzZZJfgMqFdJ+Atb7HLm8sml1tGcRZDD1Kt/z3QJzHWZoM0tSJs
0WkCAwEAAaOCAYwwggGIMAkGA1UdEwQCMAAwCwYDVR0PBAQDAgXgMB0GA1UdDgQW
BBQ3fKKMB7Msi6bNbnagLI04K3kIpTCBrgYDVR0jBIGmMIGjgBQmwnpn433KTE2u
qcM8X+zZAfblK6GBh6SBhDCBgTEPMA0GA1UEAxMGcm9vdENBMRowGAYDVQQLExFC
YXNobyBFbmdpbmVlcmluZzEOMAwGA1UEChMFQmFzaG8xFjAUBgNVBAcTDUNhbWJy
aWRnZSwgTUExCzAJBgNVBAYTAlVTMR0wGwYJKoZIhvcNAQkBFg5yaWFrQGJhc2hv
LmNvbYIBATAZBgNVHREEEjAQgQ5yaWFrQGJhc2hvLmNvbTAZBgNVHRIEEjAQgQ5y
aWFrQGJhc2hvLmNvbTBoBgNVHR8EYTBfMDCgLqAshipmaWxlOi8vL3RtcC90bXAu
d1ExNUtIdTNsby9jaGlsZENBL2NybC5wZW0wK6ApoCeGJWh0dHA6Ly9sb2NhbGhv
c3Q6ODAwMC9jaGlsZENBL2NybC5wZW0wDQYJKoZIhvcNAQEFBQADggEBADAkVyYD
o+MsaeZIWk72mAFGTiK8nNI+ExQHW0V19SOq50Zo10USKvxR39s9JaoXhCkhZmYZ
LpLWzuJphbvO830QThadjqrYFTY8gK1/rZuY1albw89VuOxHTk88SjR74eQiM5l6
BKPsCD7+iwCv+Dek9sRGNdYMDaajdPuhqKWAaIwXRm5tdwoJ21MWUJDCY3vdMuVP
H9OtIf7S8xxKpWWSCATHx2Q4T25lalsFZMyQeuP/psR5BTr8JsXmbdGuuZok/o/h
rqrguMaxzBJKNyVi5dN22w39bdTm4l/h948XNXDyXwMC+61XboxIWxncsx4myHMM
MUbjthRvPlXqafU=
-----END CERTIFICATE-----
