Certificate:
    Data:
        Version: 3 (0x2)
        Serial Number: 4 (0x4)
        Signature Algorithm: sha1WithRSAEncryption
        Issuer: CN=RootCA, OU=Basho Engineering, O=Basho, L=Cambridge, MA, C=US/emailAddress=riak@basho.com
        Validity
            Not Before: Nov 22 19:55:01 2014 GMT
            Not After : Nov 21 19:55:01 2024 GMT
        Subject: CN=site4.basho.com, OU=Basho Engineering, O=Basho, C=US, L=Cambridge, MA/emailAddress=riak@basho.com
        Subject Public Key Info:
            Public Key Algorithm: rsaEncryption
            RSA Public Key: (2048 bit)
                Modulus (2048 bit):
                    00:ee:6a:9d:bd:11:bb:7c:c7:d5:7a:d5:6a:8b:bf:
                    6e:5c:19:d1:0e:6b:3a:9e:b1:3e:96:eb:0d:49:9d:
                    33:65:86:f3:81:72:f3:fe:18:3d:63:e1:66:f6:88:
                    43:24:09:65:cb:41:0f:35:ab:b8:c2:c3:e2:2c:ca:
                    38:a8:69:10:eb:ba:cb:76:85:ef:15:fe:b9:48:92:
                    7e:9b:c9:c0:fa:76:55:de:0a:9c:c5:08:4c:48:ce:
                    80:53:da:a6:ee:91:3a:c4:12:f6:7e:e4:fc:91:2a:
                    1e:d5:df:49:64:dd:db:cd:76:62:ae:85:b4:e2:bb:
                    c6:2e:83:6a:6e:1b:34:b7:b8:19:61:7a:b2:b7:0d:
                    92:27:60:fd:8e:7e:ac:15:be:9c:e6:aa:84:34:e0:
                    dd:3f:f2:ca:a2:2a:a0:03:98:1b:9f:eb:62:8d:c4:
                    ce:2d:0e:36:07:75:17:80:4f:4a:ff:25:75:60:e0:
                    4e:4d:55:c0:9e:ad:b4:72:6d:b6:95:91:54:1a:88:
                    87:f6:c4:27:13:88:e8:d4:f8:15:24:22:ba:45:0f:
                    28:39:7d:8d:57:5a:56:b7:cb:35:2e:4e:36:21:da:
                    61:c9:f1:f3:6c:fb:60:41:f7:30:a2:71:d2:af:9e:
                    44:51:03:9b:94:d0:e2:b9:e8:49:34:dc:98:c0:a8:
                    c1:d1
                Exponent: 65537 (0x10001)
        X509v3 extensions:
            X509v3 Basic Constraints: 
                CA:FALSE
            X509v3 Key Usage: 
                Digital Signature, Non Repudiation, Key Encipherment
            X509v3 Subject Key Identifier: 
                7C:0F:E7:79:C8:CC:5A:71:AB:FC:7B:4A:31:CB:5D:C2:34:50:69:0D
            X509v3 Authority Key Identifier: 
                keyid:C9:9C:C2:8B:3B:95:13:ED:A6:68:1B:99:E1:7E:9E:BD:A7:2C:0E:7B
                DirName:/CN=RootCA/OU=Basho Engineering/O=Basho/L=Cambridge, MA/C=US/emailAddress=riak@basho.com
                serial:CF:AB:F8:2B:5F:A4:9F:A7

            X509v3 Subject Alternative Name: 
                email:riak@basho.com
            X509v3 Issuer Alternative Name: 
                email:riak@basho.com
            X509v3 CRL Distribution Points: 
                URI:file:///tmp/riak_test_scratch/certs/RootCA/crl.pem

    Signature Algorithm: sha1WithRSAEncryption
        54:50:7d:54:29:ca:13:a1:99:b5:02:59:31:e9:88:6f:e3:d9:
        b9:cb:c5:31:12:16:8a:f9:e8:56:99:60:cc:74:fb:71:21:91:
        b1:61:56:8f:3f:31:f3:84:bd:cb:46:71:b6:ca:6e:9e:4b:a0:
        39:0a:60:0f:56:87:a3:78:0c:b2:9d:36:08:8b:38:98:ae:6f:
        1c:ac:7c:0e:8a:07:79:66:9f:07:79:f0:1b:7a:6a:13:06:5b:
        27:b1:38:57:fc:8d:a3:a5:94:dc:4d:e6:92:93:57:10:e0:ee:
        a2:f7:a7:14:34:86:f2:02:7a:a7:1c:9f:d0:40:44:01:dd:73:
        b3:f7:1a:9c:ee:a0:ce:47:1a:ee:22:84:35:e9:f2:cc:ec:18:
        bc:96:d7:2b:71:ec:58:fa:44:96:f8:82:78:6f:a3:b2:a1:d6:
        76:e7:df:4e:f4:b5:58:6e:91:38:1c:52:ff:5f:4c:66:10:85:
        98:bb:61:3a:96:6f:c2:1f:0e:77:88:dc:c4:da:4f:48:f6:6f:
        31:bf:1a:c1:af:60:17:01:7b:f9:ad:4f:56:2a:07:c3:ee:3d:
        11:03:85:20:5b:b0:f6:d9:67:c0:42:27:54:a8:b9:91:7b:df:
        93:82:36:df:4e:e7:c3:8a:ba:af:26:9d:38:19:79:1a:f4:fc:
        27:34:0d:6d
-----BEGIN CERTIFICATE-----
MIIE+TCCA+GgAwIBAgIBBDANBgkqhkiG9w0BAQUFADCBgTEPMA0GA1UEAwwGUm9v
dENBMRowGAYDVQQLDBFCYXNobyBFbmdpbmVlcmluZzEOMAwGA1UECgwFQmFzaG8x
FjAUBgNVBAcMDUNhbWJyaWRnZSwgTUExCzAJBgNVBAYTAlVTMR0wGwYJKoZIhvcN
AQkBFg5yaWFrQGJhc2hvLmNvbTAeFw0xNDExMjIxOTU1MDFaFw0yNDExMjExOTU1
MDFaMIGKMRgwFgYDVQQDDA9zaXRlNC5iYXNoby5jb20xGjAYBgNVBAsMEUJhc2hv
IEVuZ2luZWVyaW5nMQ4wDAYDVQQKDAVCYXNobzELMAkGA1UEBhMCVVMxFjAUBgNV
BAcMDUNhbWJyaWRnZSwgTUExHTAbBgkqhkiG9w0BCQEWDnJpYWtAYmFzaG8uY29t
MIIBIjANBgkqhkiG9w0BAQEFAAOCAQ8AMIIBCgKCAQEA7mqdvRG7fMfVetVqi79u
XBnRDms6nrE+lusNSZ0zZYbzgXLz/hg9Y+Fm9ohDJAlly0EPNau4wsPiLMo4qGkQ
67rLdoXvFf65SJJ+m8nA+nZV3gqcxQhMSM6AU9qm7pE6xBL2fuT8kSoe1d9JZN3b
zXZiroW04rvGLoNqbhs0t7gZYXqytw2SJ2D9jn6sFb6c5qqENODdP/LKoiqgA5gb
n+tijcTOLQ42B3UXgE9K/yV1YOBOTVXAnq20cm22lZFUGoiH9sQnE4jo1PgVJCK6
RQ8oOX2NV1pWt8s1Lk42IdphyfHzbPtgQfcwonHSr55EUQOblNDiuehJNNyYwKjB
0QIDAQABo4IBbzCCAWswCQYDVR0TBAIwADALBgNVHQ8EBAMCBeAwHQYDVR0OBBYE
FHwP53nIzFpxq/x7SjHLXcI0UGkNMIG2BgNVHSMEga4wgauAFMmcwos7lRPtpmgb
meF+nr2nLA57oYGHpIGEMIGBMQ8wDQYDVQQDDAZSb290Q0ExGjAYBgNVBAsMEUJh
c2hvIEVuZ2luZWVyaW5nMQ4wDAYDVQQKDAVCYXNobzEWMBQGA1UEBwwNQ2FtYnJp
ZGdlLCBNQTELMAkGA1UEBhMCVVMxHTAbBgkqhkiG9w0BCQEWDnJpYWtAYmFzaG8u
Y29tggkAz6v4K1+kn6cwGQYDVR0RBBIwEIEOcmlha0BiYXNoby5jb20wGQYDVR0S
BBIwEIEOcmlha0BiYXNoby5jb20wQwYDVR0fBDwwOjA4oDagNIYyZmlsZTovLy90
bXAvcmlha190ZXN0X3NjcmF0Y2gvY2VydHMvUm9vdENBL2NybC5wZW0wDQYJKoZI
hvcNAQEFBQADggEBAFRQfVQpyhOhmbUCWTHpiG/j2bnLxTESFor56FaZYMx0+3Eh
kbFhVo8/MfOEvctGcbbKbp5LoDkKYA9Wh6N4DLKdNgiLOJiubxysfA6KB3lmnwd5
8Bt6ahMGWyexOFf8jaOllNxN5pKTVxDg7qL3pxQ0hvICeqccn9BARAHdc7P3Gpzu
oM5HGu4ihDXp8szsGLyW1ytx7Fj6RJb4gnhvo7Kh1nbn3070tVhukTgcUv9fTGYQ
hZi7YTqWb8IfDneI3MTaT0j2bzG/GsGvYBcBe/mtT1YqB8PuPREDhSBbsPbZZ8BC
J1SouZF735OCNt9O58OKuq8mnTgZeRr0/Cc0DW0=
-----END CERTIFICATE-----
