Certificate:
    Data:
        Version: 3 (0x2)
        Serial Number: 4 (0x4)
    Signature Algorithm: sha1WithRSAEncryption
        Issuer: CN=rootCA, OU=Basho Engineering, O=Basho, L=Cambridge, MA, C=US/emailAddress=riak@basho.com
        Validity
            Not Before: Oct 20 21:50:35 2014 GMT
            Not After : Aug 28 21:50:35 2024 GMT
        Subject: CN=site3.basho.com, OU=Basho Engineering, O=Basho, C=US, L=Cambridge, MA/emailAddress=riak@basho.com
        Subject Public Key Info:
            Public Key Algorithm: rsaEncryption
                Public-Key: (2048 bit)
                Modulus:
                    00:bd:b8:d9:df:ec:6f:35:1f:3a:4d:cd:31:4c:9b:
                    bb:8d:a4:da:22:4e:3d:2a:12:b6:5e:e1:b4:ec:8e:
                    c5:fc:54:59:10:fc:02:58:f0:0c:81:a8:dc:02:c9:
                    5e:c7:fb:72:6b:ce:0b:0d:b6:33:98:e1:eb:60:58:
                    bf:a8:09:b0:44:9f:9c:5f:10:9d:79:d5:19:7a:6b:
                    88:e4:3d:95:69:b9:63:e0:80:88:41:d9:a0:1a:5f:
                    c1:02:ce:bd:ee:61:82:07:6e:cd:2b:e1:23:7a:d6:
                    15:7a:42:c1:dd:49:e5:ed:6d:c2:01:56:db:e8:07:
                    67:f3:1f:de:66:6d:b8:f9:ad:0b:74:74:59:4b:f8:
                    6b:b6:f2:d6:67:8e:32:69:61:83:59:51:ea:7e:58:
                    42:7d:48:3a:4d:52:72:bf:e4:4b:c2:c6:20:32:e9:
                    b4:69:f8:24:28:f5:a2:4e:58:6a:6e:cb:57:72:e2:
                    8a:c9:30:87:b0:2a:8d:0b:34:f8:e3:03:6a:c2:16:
                    a4:46:29:a0:66:1b:f9:3a:de:9c:4f:42:77:74:97:
                    af:23:d3:fb:d7:43:dc:11:46:8b:04:63:20:75:48:
                    49:04:d2:a2:2d:c2:76:82:e4:4d:3d:b2:a6:27:36:
                    25:b3:39:b5:5b:3b:ee:e5:81:ba:51:e0:40:94:56:
                    01:8d
                Exponent: 65537 (0x10001)
        X509v3 extensions:
            X509v3 Basic Constraints: 
                CA:FALSE
            X509v3 Key Usage: 
                Digital Signature, Non Repudiation, Key Encipherment
            X509v3 Subject Key Identifier: 
                A3:16:9A:62:66:F0:D8:90:7D:39:12:45:A6:B1:5C:00:1A:DA:A0:B8
            X509v3 Authority Key Identifier: 
                keyid:0B:FA:5C:C3:A7:53:35:6B:B8:CE:70:39:5A:43:32:C4:80:80:73:48
                DirName:/CN=rootCA/OU=Basho Engineering/O=Basho/L=Cambridge, MA/C=US/emailAddress=riak@basho.com
                serial:DF:2B:E1:06:46:5B:41:94

            X509v3 Subject Alternative Name: 
                email:riak@basho.com
            X509v3 Issuer Alternative Name: 
                email:riak@basho.com
            X509v3 CRL Distribution Points: 

                Full Name:
                  URI:file:///tmp/tmp.wQ15KHu3lo/rootCA/crl.pem

                Full Name:
                  URI:http://localhost:8000/rootCA/crl.pem

    Signature Algorithm: sha1WithRSAEncryption
         68:fe:14:8b:45:ee:ec:e2:c5:ca:94:a1:e3:1b:bb:eb:43:97:
         90:79:7a:fc:d6:01:70:bb:7b:3a:26:be:24:f7:0c:6e:80:67:
         9a:0d:55:f3:83:0a:48:ff:72:2e:2a:1f:b1:01:77:c5:0a:54:
         fe:ba:c4:5b:3b:f5:6c:be:52:63:7d:39:25:6e:b3:75:42:b6:
         4d:5b:2b:24:7e:2f:c1:b6:ef:fd:6d:0c:77:de:1f:48:59:af:
         67:62:1c:e7:2c:19:ca:de:51:07:42:c4:89:c9:3f:f1:03:38:
         1e:3a:66:08:51:76:ae:2f:ee:55:22:fa:49:21:55:94:b0:50:
         84:fd:16:f7:09:b1:19:32:7c:2e:09:a2:e5:34:16:8a:98:ad:
         a6:d5:f3:a6:dd:4d:0d:b1:2b:7e:ed:38:47:38:3c:03:7c:fb:
         47:ce:fc:05:b3:7b:a5:54:50:56:83:cc:8d:ad:b9:53:e7:39:
         32:37:98:fc:2d:73:ab:0f:c4:5a:00:4c:01:8c:07:d4:72:fa:
         5f:35:e0:ee:31:15:75:16:cb:fb:7c:b8:da:fd:be:aa:da:e2:
         c1:60:4b:82:6d:ee:c8:12:9a:db:13:6c:15:39:e7:88:f6:a3:
         5f:0a:a2:37:8d:52:33:9b:2d:f0:95:b9:04:e4:46:4d:ad:2e:
         28:75:1a:1d
-----BEGIN CERTIFICATE-----
MIIFHDCCBASgAwIBAgIBBDANBgkqhkiG9w0BAQUFADCBgTEPMA0GA1UEAxMGcm9v
dENBMRowGAYDVQQLExFCYXNobyBFbmdpbmVlcmluZzEOMAwGA1UEChMFQmFzaG8x
FjAUBgNVBAcTDUNhbWJyaWRnZSwgTUExCzAJBgNVBAYTAlVTMR0wGwYJKoZIhvcN
AQkBFg5yaWFrQGJhc2hvLmNvbTAeFw0xNDEwMjAyMTUwMzVaFw0yNDA4MjgyMTUw
MzVaMIGKMRgwFgYDVQQDEw9zaXRlMy5iYXNoby5jb20xGjAYBgNVBAsTEUJhc2hv
IEVuZ2luZWVyaW5nMQ4wDAYDVQQKEwVCYXNobzELMAkGA1UEBhMCVVMxFjAUBgNV
BAcTDUNhbWJyaWRnZSwgTUExHTAbBgkqhkiG9w0BCQEWDnJpYWtAYmFzaG8uY29t
MIIBIjANBgkqhkiG9w0BAQEFAAOCAQ8AMIIBCgKCAQEAvbjZ3+xvNR86Tc0xTJu7
jaTaIk49KhK2XuG07I7F/FRZEPwCWPAMgajcAslex/tya84LDbYzmOHrYFi/qAmw
RJ+cXxCdedUZemuI5D2Vablj4ICIQdmgGl/BAs697mGCB27NK+EjetYVekLB3Unl
7W3CAVbb6Adn8x/eZm24+a0LdHRZS/hrtvLWZ44yaWGDWVHqflhCfUg6TVJyv+RL
wsYgMum0afgkKPWiTlhqbstXcuKKyTCHsCqNCzT44wNqwhakRimgZhv5Ot6cT0J3
dJevI9P710PcEUaLBGMgdUhJBNKiLcJ2guRNPbKmJzYlszm1Wzvu5YG6UeBAlFYB
jQIDAQABo4IBkjCCAY4wCQYDVR0TBAIwADALBgNVHQ8EBAMCBeAwHQYDVR0OBBYE
FKMWmmJm8NiQfTkSRaaxXAAa2qC4MIG2BgNVHSMEga4wgauAFAv6XMOnUzVruM5w
OVpDMsSAgHNIoYGHpIGEMIGBMQ8wDQYDVQQDEwZyb290Q0ExGjAYBgNVBAsTEUJh
c2hvIEVuZ2luZWVyaW5nMQ4wDAYDVQQKEwVCYXNobzEWMBQGA1UEBxMNQ2FtYnJp
ZGdlLCBNQTELMAkGA1UEBhMCVVMxHTAbBgkqhkiG9w0BCQEWDnJpYWtAYmFzaG8u
Y29tggkA3yvhBkZbQZQwGQYDVR0RBBIwEIEOcmlha0BiYXNoby5jb20wGQYDVR0S
BBIwEIEOcmlha0BiYXNoby5jb20wZgYDVR0fBF8wXTAvoC2gK4YpZmlsZTovLy90
bXAvdG1wLndRMTVLSHUzbG8vcm9vdENBL2NybC5wZW0wKqAooCaGJGh0dHA6Ly9s
b2NhbGhvc3Q6ODAwMC9yb290Q0EvY3JsLnBlbTANBgkqhkiG9w0BAQUFAAOCAQEA
aP4Ui0Xu7OLFypSh4xu760OXkHl6/NYBcLt7Oia+JPcMboBnmg1V84MKSP9yLiof
sQF3xQpU/rrEWzv1bL5SY305JW6zdUK2TVsrJH4vwbbv/W0Md94fSFmvZ2Ic5ywZ
yt5RB0LEick/8QM4HjpmCFF2ri/uVSL6SSFVlLBQhP0W9wmxGTJ8Lgmi5TQWipit
ptXzpt1NDbErfu04Rzg8A3z7R878BbN7pVRQVoPMja25U+c5MjeY/C1zqw/EWgBM
AYwH1HL6XzXg7jEVdRbL+3y42v2+qtriwWBLgm3uyBKa2xNsFTnniPajXwqiN41S
M5st8JW5BORGTa0uKHUaHQ==
-----END CERTIFICATE-----
