Certificate:
    Data:
        Version: 3 (0x2)
        Serial Number: 2 (0x2)
        Signature Algorithm: sha1WithRSAEncryption
        Issuer: CN=RootCA, OU=Basho Engineering, O=Basho, L=Cambridge, MA, C=US/emailAddress=riak@basho.com
        Validity
            Not Before: Nov 22 19:55:01 2014 GMT
            Not After : Nov 21 19:55:01 2024 GMT
        Subject: CN=site3.basho.com, OU=Basho Engineering, O=Basho, C=US, L=Cambridge, MA/emailAddress=riak@basho.com
        Subject Public Key Info:
            Public Key Algorithm: rsaEncryption
            RSA Public Key: (2048 bit)
                Modulus (2048 bit):
                    00:c5:49:8d:3d:c9:d8:8e:d1:a3:82:ca:b3:26:1f:
                    76:05:fb:2d:3f:17:dd:04:63:2b:49:61:4b:ed:42:
                    b1:99:a9:eb:1a:e4:11:fd:7b:9e:d6:c8:1a:25:49:
                    2f:a7:62:73:b3:10:3a:5f:bf:ee:a0:7a:45:f9:39:
                    1f:43:78:b3:49:11:22:30:7a:2f:88:d5:1b:ad:21:
                    57:56:a8:7c:b3:3f:99:43:9d:d4:60:7c:57:be:ca:
                    1d:de:11:c8:f4:8a:72:3e:de:ae:89:1b:b3:56:64:
                    d0:ed:40:10:62:57:7e:d2:37:58:c8:5a:07:f9:25:
                    95:46:03:39:55:2e:95:61:cd:41:1c:dd:b7:71:28:
                    1c:47:dc:32:23:b8:f7:20:54:e8:7a:c5:37:9f:45:
                    91:f8:ca:10:77:81:b6:f5:e4:bb:17:bd:22:af:68:
                    f2:1d:1c:61:dc:1d:68:2a:13:0a:d8:b1:d9:d6:2d:
                    a6:66:a7:db:4d:d8:6c:e6:71:7a:e5:0d:e9:6e:06:
                    e8:91:bf:1d:6a:b8:20:ea:7f:f3:d2:62:77:53:92:
                    3e:82:e8:d3:32:56:f8:40:c8:25:29:7c:c9:68:92:
                    df:ea:89:9d:b5:da:66:76:17:d1:7a:9a:d8:37:2c:
                    d1:c3:38:c9:bd:60:0e:62:76:eb:8c:6f:72:8e:12:
                    66:5d
                Exponent: 65537 (0x10001)
        X509v3 extensions:
            X509v3 Basic Constraints: 
                CA:FALSE
            X509v3 Key Usage: 
                Digital Signature, Non Repudiation, Key Encipherment
            X509v3 Subject Key Identifier: 
                E6:9F:61:DD:B7:A2:FC:E7:62:05:2F:BF:13:09:DD:77:2C:9A:9C:7E
            X509v3 Authority Key Identifier: 
                keyid:C9:9C:C2:8B:3B:95:13:ED:A6:68:1B:99:E1:7E:9E:BD:A7:2C:0E:7B
                DirName:/CN=RootCA/OU=Basho Engineering/O=Basho/L=Cambridge, MA/C=US/emailAddress=riak@basho.com
                serial:CF:AB:F8:2B:5F:A4:9F:A7

            X509v3 Subject Alternative Name: 
                email:riak@basho.com
            X509v3 Issuer Alternative Name: 
                email:riak@basho.com
            X509v3 CRL Distribution Points: 
                URI:file:///tmp/riak_test_scratch/certs/RootCA/crl.pem

    Signature Algorithm: sha1WithRSAEncryption
        0b:a6:71:62:ad:65:cb:86:32:88:e0:9c:e8:09:60:58:e9:25:
        30:f2:a0:ca:1d:12:5c:e7:00:52:b4:2b:46:cf:d3:e7:ee:da:
        07:ad:55:e2:65:98:c3:f8:34:c0:96:19:a0:46:57:7a:dd:40:
        1f:0f:48:14:9d:97:56:6e:29:9d:a3:1e:ab:27:93:ba:c1:78:
        64:6a:c8:00:71:c7:22:b2:7f:c3:60:b1:6e:95:a4:e4:4e:f5:
        bf:f2:d0:38:8a:c7:56:7f:6a:3c:b6:4c:6b:6f:b3:92:54:14:
        78:d5:23:1f:a3:09:81:2b:b2:5d:00:5f:1f:9b:ac:3d:2b:3c:
        54:ee:22:dc:3d:b3:1a:3f:45:cc:30:46:e9:5d:8f:1a:6f:5e:
        87:29:81:ef:4b:8c:bf:f8:6b:e5:dc:59:b5:d1:cf:ed:27:9d:
        45:e0:2b:0f:3f:5d:45:e1:33:03:3b:f4:3d:cb:79:35:db:18:
        d2:51:b8:b4:8c:19:e7:8d:4e:63:ed:4b:c0:29:56:bc:0d:f4:
        7a:e5:42:a9:be:34:07:2c:7f:f1:8d:a0:30:ec:4e:08:de:6d:
        1a:c8:e3:c4:d6:88:53:ae:f5:72:53:ba:84:d5:4c:7c:d4:c5:
        8f:c0:ac:5d:14:52:07:0e:98:d2:d9:96:f7:c4:16:94:8d:67:
        0e:f8:63:a2
-----BEGIN CERTIFICATE-----
MIIE+TCCA+GgAwIBAgIBAjANBgkqhkiG9w0BAQUFADCBgTEPMA0GA1UEAwwGUm9v
dENBMRowGAYDVQQLDBFCYXNobyBFbmdpbmVlcmluZzEOMAwGA1UECgwFQmFzaG8x
FjAUBgNVBAcMDUNhbWJyaWRnZSwgTUExCzAJBgNVBAYTAlVTMR0wGwYJKoZIhvcN
AQkBFg5yaWFrQGJhc2hvLmNvbTAeFw0xNDExMjIxOTU1MDFaFw0yNDExMjExOTU1
MDFaMIGKMRgwFgYDVQQDDA9zaXRlMy5iYXNoby5jb20xGjAYBgNVBAsMEUJhc2hv
IEVuZ2luZWVyaW5nMQ4wDAYDVQQKDAVCYXNobzELMAkGA1UEBhMCVVMxFjAUBgNV
BAcMDUNhbWJyaWRnZSwgTUExHTAbBgkqhkiG9w0BCQEWDnJpYWtAYmFzaG8uY29t
MIIBIjANBgkqhkiG9w0BAQEFAAOCAQ8AMIIBCgKCAQEAxUmNPcnYjtGjgsqzJh92
BfstPxfdBGMrSWFL7UKxmanrGuQR/Xue1sgaJUkvp2JzsxA6X7/uoHpF+TkfQ3iz
SREiMHoviNUbrSFXVqh8sz+ZQ53UYHxXvsod3hHI9IpyPt6uiRuzVmTQ7UAQYld+
0jdYyFoH+SWVRgM5VS6VYc1BHN23cSgcR9wyI7j3IFToesU3n0WR+MoQd4G29eS7
F70ir2jyHRxh3B1oKhMK2LHZ1i2mZqfbTdhs5nF65Q3pbgbokb8dargg6n/z0mJ3
U5I+gujTMlb4QMglKXzJaJLf6omdtdpmdhfReprYNyzRwzjJvWAOYnbrjG9yjhJm
XQIDAQABo4IBbzCCAWswCQYDVR0TBAIwADALBgNVHQ8EBAMCBeAwHQYDVR0OBBYE
FOafYd23ovznYgUvvxMJ3Xcsmpx+MIG2BgNVHSMEga4wgauAFMmcwos7lRPtpmgb
meF+nr2nLA57oYGHpIGEMIGBMQ8wDQYDVQQDDAZSb290Q0ExGjAYBgNVBAsMEUJh
c2hvIEVuZ2luZWVyaW5nMQ4wDAYDVQQKDAVCYXNobzEWMBQGA1UEBwwNQ2FtYnJp
ZGdlLCBNQTELMAkGA1UEBhMCVVMxHTAbBgkqhkiG9w0BCQEWDnJpYWtAYmFzaG8u
Y29tggkAz6v4K1+kn6cwGQYDVR0RBBIwEIEOcmlha0BiYXNoby5jb20wGQYDVR0S
BBIwEIEOcmlha0BiYXNoby5jb20wQwYDVR0fBDwwOjA4oDagNIYyZmlsZTovLy90
bXAvcmlha190ZXN0X3NjcmF0Y2gvY2VydHMvUm9vdENBL2NybC5wZW0wDQYJKoZI
hvcNAQEFBQADggEBAAumcWKtZcuGMojgnOgJYFjpJTDyoModElznAFK0K0bP0+fu
2getVeJlmMP4NMCWGaBGV3rdQB8PSBSdl1ZuKZ2jHqsnk7rBeGRqyABxxyKyf8Ng
sW6VpORO9b/y0DiKx1Z/ajy2TGtvs5JUFHjVIx+jCYErsl0AXx+brD0rPFTuItw9
sxo/RcwwRuldjxpvXocpge9LjL/4a+XcWbXRz+0nnUXgKw8/XUXhMwM79D3LeTXb
GNJRuLSMGeeNTmPtS8ApVrwN9HrlQqm+NAcsf/GNoDDsTgjebRrI48TWiFOu9XJT
uoTVTHzUxY/ArF0UUgcOmNLZlvfEFpSNZw74Y6I=
-----END CERTIFICATE-----
