Certificate:
    Data:
        Version: 3 (0x2)
        Serial Number: 11257140779044973935 (0x9c3965e5498a2d6f)
    Signature Algorithm: sha1WithRSAEncryption
        Issuer: C=US, ST=New York, O=Basho, CN=Basho root CA
        Validity
            Not Before: Apr 29 17:05:45 2013 GMT
            Not After : Apr 29 17:05:45 2014 GMT
        Subject: C=US, ST=New York, L=Potsdam, O=Basho, CN=site4.basho.com
        Subject Public Key Info:
            Public Key Algorithm: rsaEncryption
                Public-Key: (1024 bit)
                Modulus:
                    00:c2:bc:cc:75:cf:5c:3c:11:e9:f7:bf:38:92:8e:
                    4a:30:c3:2e:fa:bc:bc:d0:9f:34:85:c7:6e:35:6d:
                    c9:4d:16:ca:43:37:f7:c6:ea:80:ff:b7:2e:08:73:
                    c0:13:44:66:dc:19:be:82:dc:d5:02:3d:bc:dc:9b:
                    14:31:03:ed:b9:55:ff:2e:54:08:e9:f6:c0:44:48:
                    d3:e8:44:50:83:49:ed:f0:ae:8b:50:b9:6c:f0:0b:
                    db:99:73:76:97:90:0c:9c:bf:c7:9e:9a:91:68:c7:
                    48:35:10:7f:8d:19:f8:95:5c:5b:39:45:c4:28:b8:
                    af:d5:4c:d1:b7:29:bb:52:4f
                Exponent: 65537 (0x10001)
        X509v3 extensions:
            X509v3 Basic Constraints: 
                CA:FALSE
            Netscape Comment: 
                OpenSSL Generated Certificate
            X509v3 Subject Key Identifier: 
                20:C1:C9:B9:23:77:F0:D8:24:77:19:1B:84:2D:18:EB:6E:5B:61:16
            X509v3 Authority Key Identifier: 
                keyid:D3:35:1A:59:0A:6B:4B:8F:2E:4A:86:27:07:9E:40:AB:23:61:A8:88

    Signature Algorithm: sha1WithRSAEncryption
         b8:80:5b:ef:4b:98:bc:81:ac:c7:5d:d6:4a:91:15:24:5e:4d:
         9b:94:ed:bd:58:3e:66:69:f7:09:d9:11:63:6e:c6:fc:24:8f:
         29:7d:a2:45:e6:8d:63:b8:38:b9:31:6c:7b:e4:45:9f:97:c5:
         e4:82:c3:ab:de:55:a9:2a:d5:34:9b:91:11:c7:0b:48:67:2f:
         61:6f:ca:06:fc:51:40:13:c8:b2:53:bd:b0:24:ea:cc:5f:d7:
         e1:72:bb:9b:41:af:6b:87:78:ee:ca:69:af:1a:b7:49:fa:9f:
         93:16:0a:f8:3a:70:fc:70:88:95:73:63:8d:af:b4:8f:46:10:
         f4:d8
-----BEGIN CERTIFICATE-----
MIICnTCCAgagAwIBAgIJAJw5ZeVJii1vMA0GCSqGSIb3DQEBBQUAMEgxCzAJBgNV
BAYTAlVTMREwDwYDVQQIDAhOZXcgWW9yazEOMAwGA1UECgwFQmFzaG8xFjAUBgNV
BAMMDUJhc2hvIHJvb3QgQ0EwHhcNMTMwNDI5MTcwNTQ1WhcNMTQwNDI5MTcwNTQ1
WjBcMQswCQYDVQQGEwJVUzERMA8GA1UECAwITmV3IFlvcmsxEDAOBgNVBAcMB1Bv
dHNkYW0xDjAMBgNVBAoMBUJhc2hvMRgwFgYDVQQDDA9zaXRlNC5iYXNoby5jb20w
gZ8wDQYJKoZIhvcNAQEBBQADgY0AMIGJAoGBAMK8zHXPXDwR6fe/OJKOSjDDLvq8
vNCfNIXHbjVtyU0WykM398bqgP+3LghzwBNEZtwZvoLc1QI9vNybFDED7blV/y5U
COn2wERI0+hEUINJ7fCui1C5bPAL25lzdpeQDJy/x56akWjHSDUQf40Z+JVcWzlF
xCi4r9VM0bcpu1JPAgMBAAGjezB5MAkGA1UdEwQCMAAwLAYJYIZIAYb4QgENBB8W
HU9wZW5TU0wgR2VuZXJhdGVkIENlcnRpZmljYXRlMB0GA1UdDgQWBBQgwcm5I3fw
2CR3GRuELRjrblthFjAfBgNVHSMEGDAWgBTTNRpZCmtLjy5KhicHnkCrI2GoiDAN
BgkqhkiG9w0BAQUFAAOBgQC4gFvvS5i8gazHXdZKkRUkXk2blO29WD5mafcJ2RFj
bsb8JI8pfaJF5o1juDi5MWx75EWfl8XkgsOr3lWpKtU0m5ERxwtIZy9hb8oG/FFA
E8iyU72wJOrMX9fhcrubQa9rh3juymmvGrdJ+p+TFgr4OnD8cIiVc2ONr7SPRhD0
2A==
-----END CERTIFICATE-----
