Certificate:
    Data:
        Version: 3 (0x2)
        Serial Number: 1 (0x1)
    Signature Algorithm: sha1WithRSAEncryption
        Issuer: CN=childCA, OU=Basho Engineering, O=Basho, C=US, L=Cambridge, MA/emailAddress=riak@basho.com
        Validity
            Not Before: Oct 20 21:50:34 2014 GMT
            Not After : Aug 28 21:50:34 2024 GMT
        Subject: CN=site1.basho.com, OU=Basho Engineering, O=Basho, C=US, L=Cambridge, MA/emailAddress=riak@basho.com
        Subject Public Key Info:
            Public Key Algorithm: rsaEncryption
                Public-Key: (2048 bit)
                Modulus:
                    00:cb:0d:8a:13:81:41:ca:ca:59:b5:26:e2:e2:ce:
                    0d:31:a9:f5:33:19:37:56:f1:5b:da:60:be:1a:a9:
                    8d:0f:0f:94:53:ab:c6:4a:fb:f3:e3:04:04:c4:eb:
                    ff:af:ee:b0:85:61:62:01:bf:1e:04:06:f1:b2:f4:
                    d2:63:78:22:35:d2:b3:bb:17:f7:97:4d:eb:d5:7e:
                    de:87:94:d8:37:2a:94:ba:76:cd:eb:04:34:fa:ae:
                    9c:28:a6:6d:ac:0c:c4:ca:7b:59:e7:8e:68:70:63:
                    ff:66:b8:c9:4c:cc:cb:b9:d3:24:4b:6d:61:93:3e:
                    9f:bc:14:94:ca:8e:4a:4d:1f:5a:65:15:6b:23:5c:
                    e6:76:7a:71:0f:81:24:65:81:c9:bf:ef:7c:13:90:
                    f9:54:cc:88:7f:86:27:f8:41:54:f5:0a:e2:21:a9:
                    45:d2:9c:c1:b1:06:84:54:02:19:2b:44:19:01:7c:
                    62:90:f5:21:64:ae:51:24:be:bb:50:f1:8b:47:ac:
                    40:3a:9a:34:6d:78:3f:5f:b8:9a:ab:71:da:e2:42:
                    f9:69:29:e0:4b:98:ed:43:50:e6:98:cf:ac:e8:eb:
                    c0:48:39:8d:3d:1d:14:43:34:3b:f5:ff:91:28:49:
                    1c:df:3f:00:d0:40:22:aa:f9:70:dc:1e:bc:fd:60:
                    b8:1d
                Exponent: 65537 (0x10001)
        X509v3 extensions:
            X509v3 Basic Constraints: 
                CA:FALSE
            X509v3 Key Usage: 
                Digital Signature, Non Repudiation, Key Encipherment
            X509v3 Subject Key Identifier: 
                99:D4:00:40:6D:44:2F:C9:D9:32:10:CD:FA:50:56:0A:91:1B:F0:18
            X509v3 Authority Key Identifier: 
                keyid:26:C2:7A:67:E3:7D:CA:4C:4D:AE:A9:C3:3C:5F:EC:D9:01:F6:E5:2B
                DirName:/CN=rootCA/OU=Basho Engineering/O=Basho/L=Cambridge, MA/C=US/emailAddress=riak@basho.com
                serial:01

            X509v3 Subject Alternative Name: 
                email:riak@basho.com
            X509v3 Issuer Alternative Name: 
                email:riak@basho.com
            X509v3 CRL Distribution Points: 

                Full Name:
                  URI:file:///tmp/tmp.wQ15KHu3lo/childCA/crl.pem

                Full Name:
                  URI:http://localhost:8000/childCA/crl.pem

    Signature Algorithm: sha1WithRSAEncryption
         13:38:ea:5b:0f:c2:df:0b:5d:14:c6:53:4d:04:a7:4d:34:47:
         b3:fd:84:98:c2:d7:f5:3a:b9:e3:ea:26:56:4f:aa:99:e3:b1:
         b3:be:f4:f0:a7:bf:8d:05:81:b2:a8:6f:aa:30:56:f9:d5:31:
         3b:6d:08:6b:b0:2b:fc:c3:24:6d:80:94:0c:3d:f8:fb:2f:af:
         f0:88:3b:7b:0e:5a:05:74:03:3b:cf:91:c9:bf:5e:ae:7d:85:
         c4:36:8c:7d:5a:32:0e:39:bd:77:56:cc:af:c6:88:8b:55:77:
         04:c5:30:8f:86:8a:46:fc:b9:ba:d8:da:e1:e3:86:22:07:45:
         36:31:ad:3e:48:ad:12:92:7a:27:b1:30:8e:59:08:5a:37:f6:
         20:bb:27:62:1f:dd:90:c9:f5:b6:fd:bd:d2:c0:af:23:09:e4:
         94:03:0e:9c:7f:b4:8a:2e:a5:08:89:34:a8:2e:10:8d:a5:cd:
         d1:e5:13:4a:60:87:1c:7e:70:9c:89:a0:1b:76:54:08:c0:a0:
         5a:e2:fa:0b:a6:21:83:0c:7b:10:9f:2a:ee:d7:2c:2e:50:eb:
         05:4e:a9:a1:be:17:2d:36:c8:19:a2:cf:ba:78:f9:f8:56:3a:
         d6:67:03:c8:42:e0:45:d3:a3:f0:76:e2:6a:6d:e2:d7:0a:9d:
         5a:b8:08:df
-----BEGIN CERTIFICATE-----
MIIFFzCCA/+gAwIBAgIBATANBgkqhkiG9w0BAQUFADCBgjEQMA4GA1UEAxMHY2hp
bGRDQTEaMBgGA1UECxMRQmFzaG8gRW5naW5lZXJpbmcxDjAMBgNVBAoTBUJhc2hv
MQswCQYDVQQGEwJVUzEWMBQGA1UEBxMNQ2FtYnJpZGdlLCBNQTEdMBsGCSqGSIb3
DQEJARYOcmlha0BiYXNoby5jb20wHhcNMTQxMDIwMjE1MDM0WhcNMjQwODI4MjE1
MDM0WjCBijEYMBYGA1UEAxMPc2l0ZTEuYmFzaG8uY29tMRowGAYDVQQLExFCYXNo
byBFbmdpbmVlcmluZzEOMAwGA1UEChMFQmFzaG8xCzAJBgNVBAYTAlVTMRYwFAYD
VQQHEw1DYW1icmlkZ2UsIE1BMR0wGwYJKoZIhvcNAQkBFg5yaWFrQGJhc2hvLmNv
bTCCASIwDQYJKoZIhvcNAQEBBQADggEPADCCAQoCggEBAMsNihOBQcrKWbUm4uLO
DTGp9TMZN1bxW9pgvhqpjQ8PlFOrxkr78+MEBMTr/6/usIVhYgG/HgQG8bL00mN4
IjXSs7sX95dN69V+3oeU2DcqlLp2zesENPqunCimbawMxMp7WeeOaHBj/2a4yUzM
y7nTJEttYZM+n7wUlMqOSk0fWmUVayNc5nZ6cQ+BJGWByb/vfBOQ+VTMiH+GJ/hB
VPUK4iGpRdKcwbEGhFQCGStEGQF8YpD1IWSuUSS+u1Dxi0esQDqaNG14P1+4mqtx
2uJC+Wkp4EuY7UNQ5pjPrOjrwEg5jT0dFEM0O/X/kShJHN8/ANBAIqr5cNwevP1g
uB0CAwEAAaOCAYwwggGIMAkGA1UdEwQCMAAwCwYDVR0PBAQDAgXgMB0GA1UdDgQW
BBSZ1ABAbUQvydkyEM36UFYKkRvwGDCBrgYDVR0jBIGmMIGjgBQmwnpn433KTE2u
qcM8X+zZAfblK6GBh6SBhDCBgTEPMA0GA1UEAxMGcm9vdENBMRowGAYDVQQLExFC
YXNobyBFbmdpbmVlcmluZzEOMAwGA1UEChMFQmFzaG8xFjAUBgNVBAcTDUNhbWJy
aWRnZSwgTUExCzAJBgNVBAYTAlVTMR0wGwYJKoZIhvcNAQkBFg5yaWFrQGJhc2hv
LmNvbYIBATAZBgNVHREEEjAQgQ5yaWFrQGJhc2hvLmNvbTAZBgNVHRIEEjAQgQ5y
aWFrQGJhc2hvLmNvbTBoBgNVHR8EYTBfMDCgLqAshipmaWxlOi8vL3RtcC90bXAu
d1ExNUtIdTNsby9jaGlsZENBL2NybC5wZW0wK6ApoCeGJWh0dHA6Ly9sb2NhbGhv
c3Q6ODAwMC9jaGlsZENBL2NybC5wZW0wDQYJKoZIhvcNAQEFBQADggEBABM46lsP
wt8LXRTGU00Ep000R7P9hJjC1/U6uePqJlZPqpnjsbO+9PCnv40FgbKob6owVvnV
MTttCGuwK/zDJG2AlAw9+Psvr/CIO3sOWgV0AzvPkcm/Xq59hcQ2jH1aMg45vXdW
zK/GiItVdwTFMI+Gikb8ubrY2uHjhiIHRTYxrT5IrRKSeiexMI5ZCFo39iC7J2If
3ZDJ9bb9vdLAryMJ5JQDDpx/tIoupQiJNKguEI2lzdHlE0pghxx+cJyJoBt2VAjA
oFri+gumIYMMexCfKu7XLC5Q6wVOqaG+Fy02yBmiz7p4+fhWOtZnA8hC4EXTo/B2
4mpt4tcKnVq4CN8=
-----END CERTIFICATE-----
