Certificate:
    Data:
        Version: 3 (0x2)
        Serial Number: 3 (0x3)
        Signature Algorithm: sha1WithRSAEncryption
        Issuer: CN=IntCA, OU=Basho Engineering, O=Basho, C=US, L=Cambridge, MA/emailAddress=riak@basho.com
        Validity
            Not Before: Nov 22 19:55:02 2014 GMT
            Not After : Nov 21 19:55:02 2024 GMT
        Subject: CN=site2.basho.com, OU=Basho Engineering, O=Basho, C=US, L=Cambridge, MA/emailAddress=riak@basho.com
        Subject Public Key Info:
            Public Key Algorithm: rsaEncryption
            RSA Public Key: (2048 bit)
                Modulus (2048 bit):
                    00:b0:13:aa:5b:17:72:9c:34:69:86:8a:14:5d:15:
                    73:a2:5d:ce:5f:2b:75:f5:44:51:88:15:6d:73:a4:
                    18:2f:fa:5d:83:50:ad:fa:33:84:25:46:e0:1f:ff:
                    c6:6b:91:4c:5e:14:29:47:ed:38:a5:1e:b9:cf:59:
                    cc:ea:95:b8:c6:11:e6:20:d4:b2:ba:2d:33:80:9f:
                    57:71:d3:dd:54:5c:7e:8e:a0:d9:05:11:8e:46:05:
                    1e:d9:16:87:8e:a6:3e:7c:a2:b2:25:fa:9f:82:fc:
                    5e:b3:25:bf:2e:0e:4a:37:e8:a8:ce:56:71:93:5b:
                    2e:23:70:80:16:07:ab:52:a8:cb:d6:1d:fa:e2:a5:
                    05:b3:04:b8:66:dd:17:a4:60:4a:67:7d:80:b0:0f:
                    1d:45:b9:6c:ed:5b:a7:30:f2:cd:1d:9d:4f:5c:2f:
                    45:a0:8a:40:c9:49:49:c6:24:54:81:d5:a3:ad:3b:
                    38:66:b5:4a:a5:36:f2:59:24:b6:83:b6:82:0d:35:
                    fc:2b:b5:43:99:f5:37:ce:f7:79:fe:a1:31:dd:bc:
                    b6:d0:3d:83:aa:9d:e4:52:4f:e7:71:eb:4c:9d:1e:
                    e3:7b:31:b3:2a:1b:ad:27:58:f2:0d:87:83:7c:63:
                    f1:9a:ab:43:0f:b7:93:30:73:9b:a9:68:75:7f:57:
                    40:bf
                Exponent: 65537 (0x10001)
        X509v3 extensions:
            X509v3 Basic Constraints: 
                CA:FALSE
            X509v3 Key Usage: 
                Digital Signature, Non Repudiation, Key Encipherment
            X509v3 Subject Key Identifier: 
                DF:36:06:A1:45:27:0E:5D:16:77:EE:5F:38:BB:93:87:41:3D:C5:1B
            X509v3 Authority Key Identifier: 
                keyid:AC:E8:50:19:36:24:15:DF:2D:3C:01:8B:F1:8A:64:E7:7D:36:B1:40
                DirName:/CN=RootCA/OU=Basho Engineering/O=Basho/L=Cambridge, MA/C=US/emailAddress=riak@basho.com
                serial:01

            X509v3 Subject Alternative Name: 
                email:riak@basho.com
            X509v3 Issuer Alternative Name: 
                email:riak@basho.com
            X509v3 CRL Distribution Points: 
                URI:file:///tmp/riak_test_scratch/certs/IntCA/crl.pem

    Signature Algorithm: sha1WithRSAEncryption
        28:c3:2f:ed:69:17:e0:e0:b3:e4:12:e6:07:a6:5f:0a:77:38:
        f8:2a:47:89:b5:4d:8e:2f:2f:09:2a:74:5b:46:47:bb:6d:51:
        46:68:b9:44:0f:27:a5:fd:89:2e:3b:f4:e2:16:75:20:29:f9:
        5f:b5:33:39:16:7d:41:4a:c9:1a:85:c6:c8:16:08:52:20:10:
        2e:f5:88:31:11:63:97:7e:c4:72:7b:d0:fb:bd:e2:05:86:06:
        ba:82:99:04:4c:16:88:b0:10:69:24:ab:b4:97:7d:ce:f9:d9:
        3a:dc:02:12:fe:c6:05:41:f4:36:0e:1f:9f:34:b1:3b:20:1d:
        13:a9:ed:e7:d3:06:a8:c8:b1:4d:75:6c:cf:e3:60:89:d4:93:
        38:88:d9:29:3b:ec:0d:ea:76:35:20:f8:eb:1a:f0:03:ae:23:
        c8:4e:7e:b5:68:3e:d4:b9:20:de:52:4d:4b:89:0b:8c:3e:b1:
        a3:68:93:b9:78:7c:58:e8:83:b9:53:87:e4:32:09:25:b6:ec:
        c3:f3:5e:b9:72:06:cd:c3:6f:00:6c:2e:34:b7:f8:35:7e:8c:
        7a:7f:69:91:8d:8d:8c:b9:af:a7:cf:b3:6d:ce:87:82:30:d2:
        52:53:d0:21:21:4a:ba:26:16:e3:2a:8a:30:c2:67:3e:16:d5:
        d8:db:85:d7
-----BEGIN CERTIFICATE-----
MIIE7zCCA9egAwIBAgIBAzANBgkqhkiG9w0BAQUFADCBgDEOMAwGA1UEAwwFSW50
Q0ExGjAYBgNVBAsMEUJhc2hvIEVuZ2luZWVyaW5nMQ4wDAYDVQQKDAVCYXNobzEL
MAkGA1UEBhMCVVMxFjAUBgNVBAcMDUNhbWJyaWRnZSwgTUExHTAbBgkqhkiG9w0B
CQEWDnJpYWtAYmFzaG8uY29tMB4XDTE0MTEyMjE5NTUwMloXDTI0MTEyMTE5NTUw
MlowgYoxGDAWBgNVBAMMD3NpdGUyLmJhc2hvLmNvbTEaMBgGA1UECwwRQmFzaG8g
RW5naW5lZXJpbmcxDjAMBgNVBAoMBUJhc2hvMQswCQYDVQQGEwJVUzEWMBQGA1UE
BwwNQ2FtYnJpZGdlLCBNQTEdMBsGCSqGSIb3DQEJARYOcmlha0BiYXNoby5jb20w
ggEiMA0GCSqGSIb3DQEBAQUAA4IBDwAwggEKAoIBAQCwE6pbF3KcNGmGihRdFXOi
Xc5fK3X1RFGIFW1zpBgv+l2DUK36M4QlRuAf/8ZrkUxeFClH7TilHrnPWczqlbjG
EeYg1LK6LTOAn1dx091UXH6OoNkFEY5GBR7ZFoeOpj58orIl+p+C/F6zJb8uDko3
6KjOVnGTWy4jcIAWB6tSqMvWHfripQWzBLhm3RekYEpnfYCwDx1FuWztW6cw8s0d
nU9cL0WgikDJSUnGJFSB1aOtOzhmtUqlNvJZJLaDtoINNfwrtUOZ9TfO93n+oTHd
vLbQPYOqneRST+dx60ydHuN7MbMqG60nWPINh4N8Y/Gaq0MPt5Mwc5upaHV/V0C/
AgMBAAGjggFmMIIBYjAJBgNVHRMEAjAAMAsGA1UdDwQEAwIF4DAdBgNVHQ4EFgQU
3zYGoUUnDl0Wd+5fOLuTh0E9xRswga4GA1UdIwSBpjCBo4AUrOhQGTYkFd8tPAGL
8Ypk5302sUChgYekgYQwgYExDzANBgNVBAMMBlJvb3RDQTEaMBgGA1UECwwRQmFz
aG8gRW5naW5lZXJpbmcxDjAMBgNVBAoMBUJhc2hvMRYwFAYDVQQHDA1DYW1icmlk
Z2UsIE1BMQswCQYDVQQGEwJVUzEdMBsGCSqGSIb3DQEJARYOcmlha0BiYXNoby5j
b22CAQEwGQYDVR0RBBIwEIEOcmlha0BiYXNoby5jb20wGQYDVR0SBBIwEIEOcmlh
a0BiYXNoby5jb20wQgYDVR0fBDswOTA3oDWgM4YxZmlsZTovLy90bXAvcmlha190
ZXN0X3NjcmF0Y2gvY2VydHMvSW50Q0EvY3JsLnBlbTANBgkqhkiG9w0BAQUFAAOC
AQEAKMMv7WkX4OCz5BLmB6ZfCnc4+CpHibVNji8vCSp0W0ZHu21RRmi5RA8npf2J
Ljv04hZ1ICn5X7UzORZ9QUrJGoXGyBYIUiAQLvWIMRFjl37EcnvQ+73iBYYGuoKZ
BEwWiLAQaSSrtJd9zvnZOtwCEv7GBUH0Ng4fnzSxOyAdE6nt59MGqMixTXVsz+Ng
idSTOIjZKTvsDep2NSD46xrwA64jyE5+tWg+1Lkg3lJNS4kLjD6xo2iTuXh8WOiD
uVOH5DIJJbbsw/NeuXIGzcNvAGwuNLf4NX6Men9pkY2NjLmvp8+zbc6HgjDSUlPQ
ISFKuiYW4yqKMMJnPhbV2NuF1w==
-----END CERTIFICATE-----
